(lp0
(lp1
S'b1160'
p2
aS'b157'
p3
aS'b1506'
p4
aS'b1322'
p5
aS'b122'
p6
aS'b1018'
p7
aS'b370'
p8
aS'b1180'
p9
aS'b649'
p10
aS'b1487'
p11
aS'b101'
p12
aS'b872'
p13
aS'b1599'
p14
aS'b982'
p15
aS'b1418'
p16
aS'b1075'
p17
aS'b915'
p18
aS'b870'
p19
aS'b985'
p20
aS'b771'
p21
aS'b992'
p22
aS'b183'
p23
aS'b1742'
p24
aS'b1467'
p25
aS'b985'
p26
aS'b430'
p27
aS'b330'
p28
aS'b737'
p29
aS'b502'
p30
aS'b1394'
p31
aS'b509'
p32
aS'b100'
p33
aS'b915'
p34
aS'b870'
p35
aS'b470'
p36
aS'b87'
p37
aS'b3'
p38
aS'b886'
p39
aS'b391'
p40
aS'b276'
p41
aS'b1090'
p42
aS'b502'
p43
aS'b1453'
p44
aS'b1731'
p45
aS'b643'
p46
aS'b195'
p47
aS'b1270'
p48
aS'b1219'
p49
aS'b390'
p50
aS'b783'
p51
aS'b1016'
p52
aS'b913'
p53
aS'b1594'
p54
aS'b364'
p55
aS'b227'
p56
aS'b1245'
p57
aS'b970'
p58
aS'b1339'
p59
aS'b836'
p60
aS'b1182'
p61
aS'b198'
p62
aS'b351'
p63
aS'b912'
p64
aS'b261'
p65
aS'b1742'
p66
aS'b1623'
p67
aS'b1743'
p68
aS'b613'
p69
aS'b1473'
p70
aS'b1612'
p71
aS'b892'
p72
aS'b1477'
p73
aS'b252'
p74
aS'b380'
p75
aS'b538'
p76
aS'b173'
p77
aS'b287'
p78
aS'b1225'
p79
aS'b1191'
p80
aS'b1742'
p81
aS'b1307'
p82
aS'b1307'
p83
aS'b403'
p84
aS'b42'
p85
aS'b799'
p86
aS'b779'
p87
aS'b1531'
p88
aS'b390'
p89
aS'b1609'
p90
aS'b346'
p91
aS'b1353'
p92
aS'b1319'
p93
aS'b991'
p94
aS'b877'
p95
aS'b836'
p96
aS'b188'
p97
aS'b475'
p98
aS'b330'
p99
aS'b1405'
p100
aS'b168'
p101
aa(lp102
S'b81'
p103
aS'b269'
p104
aS'b929'
p105
aS'b1135'
p106
aS'b210'
p107
ag87
aS'b1455'
p108
aS'b250'
p109
aS'b1128'
p110
aS'b1353'
p111
aS'b186'
p112
aS'b811'
p113
aS'b1042'
p114
aS'b1088'
p115
aS'b536'
p116
aS'b299'
p117
aS'b508'
p118
aS'b210'
p119
aS'b549'
p120
aS'b94'
p121
aS'b984'
p122
aS'b915'
p123
ag43
ag83
aS'b154'
p124
aS'b437'
p125
aS'b80'
p126
aS'b1018'
p127
aS'b936'
p128
aS'b399'
p129
aS'b740'
p130
aS'b1705'
p131
aS'b835'
p132
aS'b704'
p133
aS'b737'
p134
aS'b265'
p135
aS'b1515'
p136
aS'b1346'
p137
aS'b159'
p138
aS'b237'
p139
aS'b655'
p140
aS'b347'
p141
aS'b1650'
p142
aS'b1597'
p143
aS'b257'
p144
aS'b360'
p145
aS'b1264'
p146
aS'b738'
p147
aS'b587'
p148
aS'b587'
p149
aS'b898'
p150
aS'b43'
p151
aS'b601'
p152
aS'b1443'
p153
aS'b1619'
p154
aS'b226'
p155
aS'b1273'
p156
aS'b609'
p157
aS'b895'
p158
aS'b1346'
p159
aS'b182'
p160
aS'b483'
p161
aS'b1441'
p162
aS'b1120'
p163
aS'b1609'
p164
aS'b538'
p165
aS'b277'
p166
aS'b774'
p167
aS'b1322'
p168
aS'b1628'
p169
aS'b998'
p170
aS'b1656'
p171
aS'b798'
p172
aS'b379'
p173
aS'b1309'
p174
aS'b183'
p175
aS'b731'
p176
aS'b170'
p177
aS'b622'
p178
aS'b637'
p179
aS'b1265'
p180
aS'b1127'
p181
aS'b542'
p182
aS'b110'
p183
aS'b512'
p184
aS'b523'
p185
aS'b35'
p186
aS'b1323'
p187
aS'b571'
p188
aS'b1122'
p189
ag72
aS'b983'
p190
aS'b1184'
p191
aS'b1640'
p192
aS'b245'
p193
aS'b295'
p194
ag54
aS'b1319'
p195
aS'b1654'
p196
aS'b1369'
p197
aa(lp198
S'b959'
p199
aS'b1604'
p200
aS'b785'
p201
ag18
ag74
aS'b847'
p202
aS'b1140'
p203
aS'b1596'
p204
aS'b735'
p205
ag170
aS'b1644'
p206
aS'b234'
p207
aS'b156'
p208
aS'b196'
p209
aS'b907'
p210
ag171
aS'b16'
p211
aS'b698'
p212
aS'b410'
p213
aS'b1081'
p214
aS'b1540'
p215
aS'b85'
p216
aS'b1654'
p217
aS'b208'
p218
aS'b1276'
p219
aS'b176'
p220
ag174
aS'b63'
p221
aS'b43'
p222
aS'b1431'
p223
aS'b1628'
p224
aS'b589'
p225
aS'b556'
p226
aS'b1624'
p227
aS'b84'
p228
aS'b503'
p229
aS'b15'
p230
aS'b1225'
p231
aS'b832'
p232
aS'b774'
p233
aS'b394'
p234
aS'b1075'
p235
aS'b1106'
p236
aS'b1504'
p237
aS'b877'
p238
ag99
ag22
aS'b1497'
p239
ag114
aS'b635'
p240
aS'b1339'
p241
aS'b863'
p242
aS'b536'
p243
aS'b641'
p244
aS'b890'
p245
aS'b307'
p246
aS'b1069'
p247
aS'b1232'
p248
ag94
aS'b1233'
p249
aS'b1237'
p250
aS'b916'
p251
aS'b1180'
p252
aS'b1036'
p253
aS'b1187'
p254
aS'b1346'
p255
aS'b276'
p256
aS'b885'
p257
ag6
aS'b928'
p258
aS'b1456'
p259
aS'b1562'
p260
aS'b1139'
p261
aS'b1705'
p262
aS'b767'
p263
aS'b1575'
p264
ag160
aS'b1405'
p265
aS'b1555'
p266
aS'b250'
p267
aS'b1498'
p268
aS'b870'
p269
aS'b113'
p270
aS'b1742'
p271
aS'b436'
p272
aS'b459'
p273
aS'b216'
p274
aS'b588'
p275
aS'b132'
p276
aS'b1023'
p277
ag191
ag119
aS'b1047'
p278
aS'b1046'
p279
aS'b1205'
p280
ag136
aS'b347'
p281
aS'b502'
p282
aS'b1471'
p283
aS'b1696'
p284
aa(lp285
S'b307'
p286
aS'b1273'
p287
aS'b951'
p288
aS'b1601'
p289
ag49
ag195
aS'b25'
p290
aS'b597'
p291
aS'b577'
p292
ag267
aS'b213'
p293
ag16
aS'b319'
p294
aS'b657'
p295
aS'b1472'
p296
aS'b1091'
p297
aS'b935'
p298
aS'b1009'
p299
aS'b267'
p300
aS'b959'
p301
aS'b1074'
p302
aS'b404'
p303
aS'b269'
p304
ag168
aS'b463'
p305
aS'b197'
p306
aS'b492'
p307
aS'b253'
p308
aS'b133'
p309
aS'b757'
p310
aS'b307'
p311
ag203
aS'b482'
p312
ag249
aS'b207'
p313
aS'b1618'
p314
ag2
ag60
ag251
aS'b1507'
p315
aS'b959'
p316
aS'b119'
p317
aS'b1324'
p318
aS'b1659'
p319
aS'b890'
p320
aS'b898'
p321
aS'b650'
p322
aS'b1640'
p323
aS'b250'
p324
aS'b613'
p325
aS'b1742'
p326
ag124
aS'b1182'
p327
aS'b357'
p328
aS'b942'
p329
aS'b936'
p330
aS'b514'
p331
aS'b1221'
p332
aS'b291'
p333
aS'b883'
p334
ag172
aS'b719'
p335
aS'b1066'
p336
aS'b853'
p337
aS'b982'
p338
aS'b1466'
p339
aS'b1061'
p340
aS'b519'
p341
aS'b371'
p342
ag167
ag79
aS'b943'
p343
aS'b1520'
p344
aS'b440'
p345
aS'b570'
p346
aS'b157'
p347
aS'b307'
p348
aS'b1188'
p349
aS'b1462'
p350
aS'b942'
p351
aS'b1669'
p352
aS'b828'
p353
aS'b403'
p354
aS'b841'
p355
ag150
aS'b1253'
p356
aS'b189'
p357
aS'b1116'
p358
ag133
aS'b458'
p359
aS'b1093'
p360
ag211
aS'b585'
p361
aS'b947'
p362
aS'b131'
p363
aS'b1250'
p364
aS'b28'
p365
aS'b1179'
p366
aS'b491'
p367
ag104
aa(lp368
g14
aS'b1188'
p369
aS'b957'
p370
aS'b554'
p371
aS'b928'
p372
aS'b915'
p373
aS'b1319'
p374
aS'b1257'
p375
aS'b350'
p376
aS'b1276'
p377
aS'b197'
p378
ag142
aS'b1070'
p379
ag360
aS'b254'
p380
aS'b329'
p381
aS'b243'
p382
aS'b1582'
p383
aS'b835'
p384
aS'b84'
p385
ag157
aS'b733'
p386
aS'b1093'
p387
aS'b1598'
p388
aS'b360'
p389
aS'b1534'
p390
ag139
aS'b1417'
p391
ag143
aS'b90'
p392
aS'b1739'
p393
aS'b164'
p394
aS'b126'
p395
aS'b1050'
p396
aS'b1459'
p397
aS'b1484'
p398
ag34
aS'b830'
p399
aS'b404'
p400
aS'b869'
p401
aS'b508'
p402
aS'b769'
p403
aS'b1111'
p404
aS'b170'
p405
ag219
aS'b243'
p406
aS'b740'
p407
aS'b861'
p408
aS'b40'
p409
aS'b1613'
p410
aS'b1690'
p411
aS'b192'
p412
aS'b93'
p413
aS'b1423'
p414
ag158
ag317
ag45
aS'b1252'
p415
aS'b85'
p416
aS'b163'
p417
aS'b738'
p418
aS'b1649'
p419
aS'b831'
p420
aS'b115'
p421
ag273
aS'b1113'
p422
aS'b106'
p423
aS'b1264'
p424
aS'b277'
p425
aS'b475'
p426
ag94
ag119
aS'b571'
p427
aS'b494'
p428
aS'b1482'
p429
aS'b55'
p430
aS'b122'
p431
aS'b585'
p432
aS'b436'
p433
aS'b1139'
p434
aS'b1363'
p435
ag33
aS'b868'
p436
aS'b873'
p437
aS'b77'
p438
aS'b1200'
p439
ag251
aS'b176'
p440
ag129
aS'b1165'
p441
ag364
aS'b956'
p442
aS'b1605'
p443
aS'b415'
p444
ag341
aS'b841'
p445
aS'b1575'
p446
aS'b1024'
p447
ag217
ag230
aa(lp448
S'b733'
p449
ag270
aS'b893'
p450
aS'b87'
p451
aS'b259'
p452
aS'b1061'
p453
ag396
aS'b325'
p454
aS'b1305'
p455
aS'b622'
p456
ag9
ag167
aS'b1615'
p457
aS'b79'
p458
aS'b623'
p459
aS'b278'
p460
aS'b294'
p461
aS'b1529'
p462
aS'b1066'
p463
ag173
ag446
aS'b39'
p464
aS'b1072'
p465
aS'b1210'
p466
ag341
aS'b990'
p467
aS'b1272'
p468
aS'b214'
p469
aS'b1143'
p470
aS'b634'
p471
aS'b482'
p472
ag431
aS'b1240'
p473
aS'b1065'
p474
aS'b971'
p475
aS'b1006'
p476
ag170
aS'b365'
p477
aS'b1139'
p478
aS'b280'
p479
aS'b1691'
p480
aS'b77'
p481
aS'b779'
p482
ag87
aS'b1540'
p483
aS'b1443'
p484
aS'b538'
p485
aS'b1311'
p486
aS'b1582'
p487
aS'b247'
p488
ag303
aS'b214'
p489
aS'b631'
p490
aS'b1253'
p491
aS'b104'
p492
aS'b504'
p493
ag148
ag283
aS'b834'
p494
ag276
aS'b22'
p495
aS'b1025'
p496
aS'b822'
p497
aS'b1650'
p498
aS'b970'
p499
aS'b1276'
p500
aS'b481'
p501
ag26
ag211
ag220
aS'b1197'
p502
aS'b1095'
p503
ag97
aS'b1531'
p504
ag443
aS'b434'
p505
aS'b373'
p506
ag385
ag367
aS'b845'
p507
aS'b1413'
p508
aS'b1088'
p509
aS'b595'
p510
aS'b959'
p511
ag237
aS'b243'
p512
ag272
ag54
aS'b64'
p513
aS'b1624'
p514
aS'b1059'
p515
aS'b1089'
p516
ag99
aS'b1742'
p517
ag309
aS'b1511'
p518
ag441
aS'b259'
p519
aS'b1089'
p520
aS'b1348'
p521
aa(lp522
S'b177'
p523
aS'b250'
p524
aS'b1419'
p525
aS'b765'
p526
ag349
ag382
aS'b257'
p527
ag296
aS'b40'
p528
aS'b591'
p529
aS'b916'
p530
ag435
ag515
ag218
aS'b510'
p531
aS'b299'
p532
aS'b462'
p533
aS'b107'
p534
ag213
ag71
aS'b1354'
p535
aS'b800'
p536
aS'b417'
p537
ag103
aS'b1622'
p538
ag273
aS'b1290'
p539
aS'b430'
p540
ag148
aS'b834'
p541
ag125
ag236
aS'b640'
p542
aS'b1187'
p543
aS'b765'
p544
aS'b519'
p545
ag328
ag303
ag146
ag91
aS'b454'
p546
ag276
aS'b1743'
p547
aS'b547'
p548
aS'b1240'
p549
aS'b260'
p550
ag294
ag268
aS'b502'
p551
ag75
aS'b1739'
p552
aS'b1370'
p553
ag281
aS'b502'
p554
ag49
aS'b282'
p555
aS'b1735'
p556
aS'b968'
p557
aS'b1710'
p558
ag256
aS'b1386'
p559
ag432
aS'b978'
p560
ag157
aS'b1365'
p561
aS'b1020'
p562
aS'b294'
p563
ag375
ag377
ag429
aS'b1541'
p564
aS'b414'
p565
ag244
ag58
aS'b1146'
p566
aS'b75'
p567
aS'b1069'
p568
aS'b956'
p569
ag412
aS'b1185'
p570
aS'b632'
p571
aS'b1570'
p572
aS'b1742'
p573
ag488
aS'b1129'
p574
ag304
aS'b1533'
p575
aS'b617'
p576
ag406
aS'b1077'
p577
aS'b954'
p578
aS'b1024'
p579
ag483
ag497
aS'b768'
p580
ag110
ag313
ag206
ag360
ag389
aa(lp581
S'b1707'
p582
aS'b607'
p583
aS'b308'
p584
aS'b1092'
p585
aS'b1695'
p586
aS'b347'
p587
ag217
ag314
ag385
ag269
ag163
aS'b1086'
p588
aS'b369'
p589
aS'b538'
p590
ag432
ag98
aS'b1348'
p591
aS'b1345'
p592
ag413
aS'b994'
p593
ag492
aS'b281'
p594
ag280
ag119
ag196
ag47
aS'b270'
p595
aS'b1613'
p596
ag303
aS'b798'
p597
aS'b992'
p598
aS'b134'
p599
aS'b1379'
p600
aS'b1222'
p601
aS'b191'
p602
ag107
aS'b768'
p603
aS'b351'
p604
aS'b959'
p605
ag327
ag494
ag235
aS'b571'
p606
aS'b609'
p607
aS'b1051'
p608
ag215
aS'b1018'
p609
aS'b983'
p610
ag206
ag63
aS'b1205'
p611
aS'b1369'
p612
aS'b1476'
p613
aS'b1556'
p614
aS'b649'
p615
ag499
ag373
ag18
ag199
ag78
ag246
aS'b1448'
p616
ag83
ag145
aS'b1618'
p617
ag423
aS'b1326'
p618
aS'b1031'
p619
aS'b1363'
p620
ag378
aS'b1561'
p621
aS'b1063'
p622
aS'b1220'
p623
aS'b905'
p624
aS'b228'
p625
ag495
ag293
ag54
ag379
aS'b70'
p626
aS'b281'
p627
aS'b1742'
p628
aS'b469'
p629
aS'b1441'
p630
ag260
ag168
ag562
ag369
aS'b126'
p631
ag12
aS'b545'
p632
aS'b855'
p633
ag233
aS'b664'
p634
aS'b243'
p635
aS'b1200'
p636
aS'b579'
p637
ag252
aS'b63'
p638
aS'b201'
p639
aa(lp640
S'b1181'
p641
aS'b1507'
p642
ag510
ag246
aS'b1306'
p643
aS'b1659'
p644
ag302
ag271
ag569
aS'b1016'
p645
aS'b243'
p646
ag420
aS'b1525'
p647
aS'b460'
p648
aS'b1741'
p649
ag108
aS'b972'
p650
ag403
aS'b1627'
p651
aS'b894'
p652
ag43
aS'b235'
p653
aS'b1237'
p654
aS'b1086'
p655
aS'b673'
p656
ag615
aS'b892'
p657
ag605
aS'b267'
p658
aS'b320'
p659
aS'b366'
p660
ag630
aS'b313'
p661
ag184
ag547
aS'b994'
p662
aS'b894'
p663
ag537
aS'b1695'
p664
aS'b168'
p665
aS'b105'
p666
ag474
aS'b922'
p667
aS'b1210'
p668
ag175
aS'b122'
p669
aS'b121'
p670
ag45
aS'b1476'
p671
ag161
ag397
aS'b1173'
p672
ag513
aS'b968'
p673
aS'b485'
p674
aS'b252'
p675
ag4
aS'b399'
p676
aS'b605'
p677
aS'b1576'
p678
ag117
aS'b1054'
p679
ag336
ag129
aS'b595'
p680
aS'b977'
p681
ag253
ag350
aS'b589'
p682
aS'b733'
p683
aS'b1337'
p684
ag206
ag150
aS'b888'
p685
ag264
aS'b410'
p686
ag137
aS'b1363'
p687
ag332
ag301
aS'b502'
p688
aS'b1325'
p689
aS'b538'
p690
ag50
aS'b1544'
p691
ag494
aS'b1117'
p692
aS'b414'
p693
ag53
aS'b1743'
p694
aS'b956'
p695
aS'b358'
p696
ag268
aS'b60'
p697
ag152
aS'b54'
p698
ag551
aS'b1084'
p699
aS'b584'
p700
ag331
aa(lp701
S'b637'
p702
aS'b167'
p703
aS'b634'
p704
aS'b247'
p705
aS'b1260'
p706
ag474
aS'b1326'
p707
aS'b632'
p708
aS'b263'
p709
aS'b259'
p710
ag356
aS'b604'
p711
ag419
ag317
aS'b559'
p712
ag455
aS'b502'
p713
ag468
aS'b104'
p714
aS'b664'
p715
aS'b239'
p716
ag401
aS'b122'
p717
aS'b85'
p718
ag491
ag601
aS'b856'
p719
aS'b916'
p720
aS'b267'
p721
aS'b291'
p722
ag454
aS'b365'
p723
ag202
ag623
ag80
ag337
aS'b1233'
p724
aS'b64'
p725
aS'b307'
p726
aS'b1487'
p727
ag127
aS'b570'
p728
ag313
ag553
aS'b1661'
p729
aS'b1229'
p730
ag617
ag222
aS'b1055'
p731
aS'b1144'
p732
ag530
aS'b35'
p733
aS'b193'
p734
ag248
aS'b243'
p735
aS'b1085'
p736
ag461
ag15
aS'b250'
p737
aS'b515'
p738
aS'b81'
p739
aS'b4'
p740
ag78
aS'b86'
p741
ag305
ag97
ag169
ag568
aS'b1596'
p742
aS'b506'
p743
aS'b283'
p744
ag354
ag342
aS'b878'
p745
ag129
ag103
ag669
aS'b989'
p746
aS'b1020'
p747
aS'b363'
p748
aS'b1579'
p749
aS'b1435'
p750
aS'b1573'
p751
aS'b1663'
p752
aS'b278'
p753
aS'b250'
p754
aS'b1062'
p755
aS'b651'
p756
ag188
aS'b36'
p757
ag17
ag672
aS'b1219'
p758
aS'b1012'
p759
ag189
aS'b1309'
p760
aS'b1196'
p761
aS'b1438'
p762
aS'b1321'
p763
ag593
aa(lp764
g50
aS'b353'
p765
aS'b628'
p766
aS'b644'
p767
ag79
aS'b283'
p768
aS'b15'
p769
aS'b1085'
p770
ag194
ag611
ag516
ag535
aS'b446'
p771
aS'b571'
p772
ag572
aS'b1348'
p773
aS'b85'
p774
ag671
ag585
ag692
ag705
ag752
aS'b250'
p775
ag142
aS'b55'
p776
aS'b538'
p777
ag428
ag114
ag18
ag41
ag449
ag643
ag139
ag718
ag619
aS'b1202'
p778
aS'b815'
p779
ag655
aS'b402'
p780
aS'b402'
p781
aS'b556'
p782
aS'b1423'
p783
aS'b187'
p784
ag174
aS'b735'
p785
ag420
aS'b1485'
p786
ag386
ag223
ag468
ag569
ag446
ag4
aS'b286'
p787
ag745
ag375
ag524
ag381
aS'b960'
p788
aS'b1258'
p789
ag731
ag59
ag423
aS'b963'
p790
aS'b611'
p791
ag33
ag568
aS'b930'
p792
ag146
aS'b1048'
p793
ag254
ag309
aS'b510'
p794
ag300
aS'b408'
p795
aS'b1139'
p796
aS'b1094'
p797
ag501
aS'b250'
p798
aS'b1090'
p799
aS'b1640'
p800
ag615
ag255
ag761
ag190
aS'b240'
p801
ag652
ag749
ag454
ag394
aS'b893'
p802
ag27
aS'b1305'
p803
ag164
ag629
ag660
ag34
ag742
ag291
aS'b1520'
p804
aa(lp805
g560
ag343
ag242
ag573
ag432
ag800
aS'b383'
p806
ag165
aS'b401'
p807
ag144
ag125
aS'b415'
p808
aS'b716'
p809
aS'b128'
p810
ag204
ag288
ag37
ag179
ag418
aS'b1413'
p811
ag421
ag124
ag265
ag169
aS'b1221'
p812
aS'b1449'
p813
ag638
ag249
aS'b871'
p814
ag445
ag208
ag801
aS'b735'
p815
ag370
aS'b450'
p816
aS'b1039'
p817
aS'b22'
p818
ag642
ag92
ag470
ag546
ag674
ag506
ag197
ag669
ag486
ag276
ag231
ag371
ag637
aS'b280'
p819
ag258
ag216
aS'b673'
p820
aS'b287'
p821
ag43
ag794
ag430
ag786
aS'b433'
p822
ag799
ag531
aS'b1742'
p823
aS'b704'
p824
ag341
ag726
aS'b195'
p825
aS'b1386'
p826
aS'b102'
p827
ag457
aS'b1044'
p828
ag359
aS'b1346'
p829
ag69
ag686
ag803
aS'b835'
p830
aS'b764'
p831
ag505
ag237
ag83
ag571
aS'b1743'
p832
aS'b1220'
p833
aS'b1742'
p834
aS'b192'
p835
ag461
ag110
ag698
aS'b973'
p836
ag19
aS'b1363'
p837
ag474
ag42
ag44
ag566
aS'b623'
p838
ag191
aS'b1017'
p839
ag272
aa(lp840
g489
aS'b189'
p841
ag435
aS'b1015'
p842
ag294
ag122
ag312
ag298
ag690
ag118
aS'b1454'
p843
aS'b1044'
p844
aS'b714'
p845
ag135
ag827
aS'b1743'
p846
aS'b669'
p847
aS'b279'
p848
ag332
ag271
ag82
aS'b1742'
p849
aS'b1669'
p850
aS'b702'
p851
aS'b740'
p852
ag338
aS'b1368'
p853
ag500
ag672
aS'b1621'
p854
ag116
aS'b914'
p855
aS'b823'
p856
ag188
ag656
ag752
aS'b1533'
p857
ag494
ag623
aS'b1258'
p858
aS'b1324'
p859
aS'b1473'
p860
ag813
ag25
aS'b635'
p861
aS'b912'
p862
aS'b1092'
p863
ag209
ag174
aS'b650'
p864
aS'b481'
p865
ag68
aS'b737'
p866
aS'b771'
p867
ag598
aS'b1383'
p868
ag760
ag667
aS'b1000'
p869
aS'b1094'
p870
aS'b1208'
p871
aS'b290'
p872
aS'b353'
p873
aS'b294'
p874
ag723
aS'b308'
p875
ag432
aS'b1440'
p876
ag323
ag471
aS'b1738'
p877
ag529
aS'b306'
p878
aS'b654'
p879
aS'b1735'
p880
ag384
ag559
aS'b943'
p881
aS'b956'
p882
ag589
ag744
ag532
aS'b651'
p883
ag189
aS'b489'
p884
ag386
ag303
ag362
ag268
aS'b1435'
p885
aS'b517'
p886
ag826
aS'b203'
p887
ag98
ag34
aS'b91'
p888
ag742
aS'b963'
p889
aS'b1213'
p890
aS'b1008'
p891
aa(lp892
g274
ag481
aS'b125'
p893
aS'b960'
p894
ag5
ag277
ag798
aS'b1042'
p895
aS'b854'
p896
aS'b152'
p897
ag195
ag357
ag300
ag600
ag768
aS'b610'
p898
ag695
ag281
ag725
ag252
ag535
ag820
ag648
ag883
ag57
aS'b1653'
p899
ag560
ag694
aS'b463'
p900
aS'b1129'
p901
aS'b857'
p902
ag653
ag130
ag259
aS'b1516'
p903
ag219
aS'b960'
p904
ag101
ag249
ag773
ag503
aS'b554'
p905
ag499
ag516
ag349
aS'b1319'
p906
ag590
ag200
ag193
ag23
ag645
ag126
ag390
ag706
aS'b959'
p907
aS'b185'
p908
aS'b770'
p909
ag39
ag589
ag483
aS'b363'
p910
ag287
ag20
ag158
ag477
aS'b989'
p911
aS'b1250'
p912
ag545
ag275
ag782
ag426
aS'b1616'
p913
aS'b279'
p914
ag271
ag292
aS'b185'
p915
ag796
aS'b864'
p916
aS'b1003'
p917
ag705
aS'b781'
p918
ag813
aS'b225'
p919
ag7
ag100
ag857
ag41
aS'b1598'
p920
ag580
ag49
aS'b978'
p921
aS'b863'
p922
aS'b327'
p923
ag191
aS'b1213'
p924
ag530
aS'b109'
p925
aS'b971'
p926
ag62
ag643
aa(lp927
S'b1515'
p928
aS'b325'
p929
ag677
ag281
ag826
aS'b914'
p930
ag464
ag722
ag354
ag254
ag232
ag4
ag591
ag576
aS'b1050'
p931
ag473
ag114
ag874
ag490
aS'b291'
p932
aS'b278'
p933
ag726
aS'b990'
p934
ag512
aS'b1065'
p935
ag38
ag190
aS'b266'
p936
ag88
ag665
ag501
aS'b903'
p937
ag328
ag415
aS'b1717'
p938
aS'b446'
p939
aS'b187'
p940
aS'b1034'
p941
ag46
aS'b1645'
p942
aS'b1472'
p943
ag6
aS'b1038'
p944
ag748
aS'b1649'
p945
ag423
ag89
ag457
aS'b394'
p946
ag98
ag249
aS'b128'
p947
ag13
aS'b11'
p948
ag420
ag730
ag352
ag708
aS'b1290'
p949
aS'b915'
p950
ag689
ag698
aS'b1498'
p951
ag558
ag915
aS'b36'
p952
aS'b1023'
p953
ag518
ag687
ag319
aS'b248'
p954
aS'b766'
p955
aS'b1144'
p956
ag318
ag545
ag24
aS'b1511'
p957
ag628
ag240
aS'b580'
p958
ag656
aS'b199'
p959
aS'b370'
p960
ag242
ag594
aS'b502'
p961
aS'b811'
p962
ag855
aS'b341'
p963
ag825
ag181
ag349
ag804
ag710
ag224
aS'b817'
p964
ag569
aS'b1550'
p965
ag299
ag711
aa(lp966
g871
aS'b1691'
p967
aS'b1062'
p968
ag914
ag779
ag31
ag833
ag117
ag806
aS'b1743'
p969
ag853
ag799
ag389
ag27
aS'b1497'
p970
ag73
ag255
ag297
ag271
ag630
ag476
ag382
aS'b965'
p971
ag24
ag910
ag848
ag254
ag625
ag473
aS'b710'
p972
ag690
ag324
aS'b1052'
p973
aS'b239'
p974
ag499
ag237
aS'b309'
p975
ag536
aS'b857'
p976
aS'b609'
p977
aS'b884'
p978
ag678
aS'b94'
p979
ag797
ag14
ag243
ag859
ag569
ag704
ag232
ag506
aS'b261'
p980
ag862
aS'b191'
p981
ag611
ag453
ag497
ag30
ag186
ag816
ag264
ag36
aS'b149'
p982
ag79
aS'b238'
p983
ag165
aS'b514'
p984
ag461
aS'b930'
p985
ag836
aS'b1084'
p986
ag516
aS'b1265'
p987
aS'b1644'
p988
aS'b1137'
p989
aS'b369'
p990
ag361
ag96
ag671
aS'b328'
p991
ag676
ag33
ag75
aS'b1224'
p992
aS'b892'
p993
aS'b325'
p994
aS'b1742'
p995
ag903
ag329
ag85
ag141
ag87
aS'b1306'
p996
aS'b1564'
p997
aS'b1156'
p998
aS'b1597'
p999
ag400
ag924
ag591
aS'b1191'
p1000
aa(lp1001
g563
aS'b1692'
p1002
aS'b1260'
p1003
aS'b1233'
p1004
ag745
aS'b1448'
p1005
aS'b1146'
p1006
ag753
aS'b1137'
p1007
aS'b1020'
p1008
ag19
ag978
ag135
aS'b1742'
p1009
ag725
aS'b39'
p1010
ag990
aS'b366'
p1011
ag905
aS'b960'
p1012
ag882
aS'b837'
p1013
ag361
aS'b125'
p1014
ag686
aS'b956'
p1015
ag388
ag346
ag959
ag150
ag349
aS'b161'
p1016
ag995
ag799
ag617
ag14
ag947
ag439
aS'b1640'
p1017
ag698
ag541
ag949
ag662
aS'b1742'
p1018
ag644
ag244
ag256
ag175
ag309
aS'b887'
p1019
aS'b1160'
p1020
ag798
aS'b1049'
p1021
ag140
aS'b179'
p1022
aS'b1311'
p1023
ag761
ag998
ag992
ag605
ag95
ag689
ag55
ag737
ag603
aS'b604'
p1024
aS'b256'
p1025
ag887
aS'b221'
p1026
aS'b636'
p1027
aS'b1742'
p1028
ag389
ag288
aS'b928'
p1029
aS'b263'
p1030
aS'b53'
p1031
ag342
aS'b1263'
p1032
ag410
aS'b1441'
p1033
ag948
ag924
aS'b1738'
p1034
ag110
ag724
ag402
aS'b1690'
p1035
aS'b595'
p1036
ag474
ag505
ag919
ag677
ag319
aS'b347'
p1037
ag303
ag940
ag796
aS'b155'
p1038
ag699
aS'b216'
p1039
aa(lp1040
g295
ag318
ag819
ag237
ag741
ag441
ag430
ag458
ag1017
ag586
aS'b4'
p1041
aS'b577'
p1042
ag280
aS'b588'
p1043
aS'b1247'
p1044
ag77
aS'b128'
p1045
ag411
ag602
aS'b236'
p1046
ag871
ag782
ag740
ag590
aS'b502'
p1047
ag743
ag521
ag52
ag552
ag815
ag900
ag960
ag781
ag154
ag290
aS'b956'
p1048
ag24
ag765
ag324
ag538
aS'b1717'
p1049
ag72
ag696
ag119
ag623
ag729
ag94
ag44
aS'b973'
p1050
ag385
ag369
ag136
ag974
ag1036
aS'b1418'
p1051
ag84
aS'b11'
p1052
aS'b902'
p1053
aS'b1222'
p1054
ag310
ag309
aS'b1074'
p1055
ag822
aS'b1441'
p1056
ag969
ag759
aS'b316'
p1057
ag576
ag833
aS'b993'
p1058
ag773
ag575
aS'b138'
p1059
ag595
ag284
ag520
ag504
aS'b142'
p1060
ag19
ag1039
ag410
aS'b1570'
p1061
ag655
ag475
ag304
ag742
aS'b1072'
p1062
ag813
aS'b800'
p1063
ag64
ag40
aS'b1742'
p1064
aS'b1325'
p1065
aS'b1446'
p1066
aS'b1731'
p1067
ag71
ag267
ag460
ag905
aS'b909'
p1068
aa(lp1069
S'b351'
p1070
ag498
ag362
aS'b1025'
p1071
aS'b819'
p1072
ag424
ag438
ag931
aS'b179'
p1073
ag735
aS'b1036'
p1074
aS'b1023'
p1075
aS'b291'
p1076
ag1005
aS'b201'
p1077
aS'b1536'
p1078
ag50
aS'b578'
p1079
ag473
ag248
ag395
ag718
aS'b76'
p1080
ag737
ag538
ag327
ag924
aS'b269'
p1081
aS'b243'
p1082
ag564
ag212
ag419
ag233
ag31
aS'b16'
p1083
ag954
ag369
ag1025
aS'b238'
p1084
ag1045
aS'b250'
p1085
ag864
ag230
aS'b1276'
p1086
aS'b1386'
p1087
ag539
ag370
ag1047
ag240
ag887
ag1016
aS'b426'
p1088
ag252
ag841
aS'b888'
p1089
aS'b1394'
p1090
ag583
aS'b1208'
p1091
ag569
ag765
ag586
ag1018
ag33
ag596
aS'b1443'
p1092
aS'b333'
p1093
ag396
ag933
ag410
aS'b489'
p1094
ag563
ag383
ag516
ag238
ag272
aS'b851'
p1095
ag874
ag356
ag639
ag262
ag587
ag489
ag774
ag346
ag181
ag76
ag618
aS'b993'
p1096
ag197
ag321
ag79
ag220
ag247
ag667
ag303
ag453
aS'b905'
p1097
ag317
ag515
ag890
aa(lp1098
S'b1023'
p1099
ag141
aS'b714'
p1100
ag590
ag981
ag947
aS'b168'
p1101
ag270
aS'b140'
p1102
ag421
ag638
ag228
aS'b357'
p1103
ag474
aS'b1639'
p1104
ag267
ag60
ag1013
ag355
aS'b1594'
p1105
ag165
aS'b817'
p1106
aS'b571'
p1107
ag117
aS'b129'
p1108
aS'b1561'
p1109
ag468
ag506
ag649
ag442
ag33
ag319
ag1085
ag106
aS'b1529'
p1110
ag804
ag518
ag755
aS'b579'
p1111
ag357
aS'b512'
p1112
aS'b1247'
p1113
aS'b916'
p1114
ag849
ag629
ag266
ag760
aS'b1534'
p1115
aS'b1091'
p1116
ag624
aS'b609'
p1117
aS'b1211'
p1118
ag325
aS'b456'
p1119
aS'b824'
p1120
ag825
ag637
ag187
ag841
aS'b588'
p1121
ag502
aS'b199'
p1122
ag710
ag1056
ag1038
ag848
ag715
ag341
aS'b1277'
p1123
aS'b1081'
p1124
ag856
aS'b1060'
p1125
ag498
ag307
aS'b813'
p1126
ag687
ag1086
aS'b1483'
p1127
ag87
ag86
ag722
aS'b1005'
p1128
ag765
ag948
ag423
ag592
ag582
ag660
ag895
ag598
aS'b1700'
p1129
ag786
ag28
ag748
ag1024
ag1018
ag965
aS'b1009'
p1130
ag778
ag15
aa(lp1131
g851
ag38
aS'b885'
p1132
ag832
ag536
ag455
ag472
ag752
ag96
aS'b761'
p1133
ag199
ag532
aS'b864'
p1134
ag83
ag922
ag780
aS'b104'
p1135
ag325
ag51
ag897
aS'b1055'
p1136
ag776
ag675
aS'b1007'
p1137
ag820
ag881
aS'b180'
p1138
ag202
ag11
aS'b1059'
p1139
aS'b394'
p1140
ag266
ag918
ag114
aS'b538'
p1141
ag55
ag66
aS'b1184'
p1142
ag666
aS'b1165'
p1143
ag649
ag937
aS'b187'
p1144
ag358
aS'b199'
p1145
ag655
aS'b1245'
p1146
ag138
ag218
ag396
aS'b8'
p1147
ag282
aS'b461'
p1148
ag911
aS'b437'
p1149
ag1005
ag1117
ag348
aS'b861'
p1150
ag680
ag259
aS'b239'
p1151
ag857
ag788
ag1108
ag349
aS'b1324'
p1152
aS'b251'
p1153
aS'b483'
p1154
ag359
aS'b1185'
p1155
ag923
ag201
aS'b886'
p1156
ag50
ag735
ag289
aS'b669'
p1157
ag342
ag34
ag1058
ag57
aS'b1477'
p1158
ag844
ag357
ag176
ag56
ag171
ag1007
aS'b234'
p1159
ag975
aS'b1446'
p1160
ag982
ag1055
ag988
ag436
ag231
ag364
ag521
ag309
aa(lp1161
S'b845'
p1162
ag432
ag311
aS'b1060'
p1163
ag972
ag909
ag325
ag189
aS'b1317'
p1164
ag553
ag858
aS'b1614'
p1165
ag218
ag437
ag748
ag489
ag361
ag427
ag180
ag938
ag797
aS'b588'
p1166
ag474
ag195
ag370
ag77
ag654
ag827
ag277
aS'b1419'
p1167
ag669
ag369
ag713
ag644
ag424
ag685
ag603
ag935
aS'b1700'
p1168
aS'b1232'
p1169
ag866
ag810
ag752
ag1086
aS'b145'
p1170
ag761
ag1005
aS'b295'
p1171
ag211
ag358
ag862
ag389
ag219
ag957
ag225
ag79
aS'b1502'
p1172
ag254
ag355
ag726
ag49
aS'b259'
p1173
ag792
ag511
ag709
ag50
aS'b1517'
p1174
ag655
ag4
aS'b1663'
p1175
aS'b938'
p1176
ag441
ag750
ag867
aS'b614'
p1177
ag687
ag782
ag567
ag898
ag920
ag854
ag729
aS'b841'
p1178
ag860
ag676
ag955
aS'b163'
p1179
ag579
ag1058
aS'b229'
p1180
ag1090
ag712
ag403
ag173
ag19
ag1136
ag97
aS'b199'
p1181
ag795
ag482
aa(lp1182
S'b1018'
p1183
ag683
ag1121
ag1155
ag719
ag694
ag859
ag1062
ag783
ag310
ag1150
ag442
ag1095
ag11
ag1030
ag588
aS'b1020'
p1184
ag395
ag114
aS'b333'
p1185
aS'b309'
p1186
ag83
ag643
ag777
aS'b62'
p1187
ag350
aS'b830'
p1188
ag211
ag760
aS'b1127'
p1189
aS'b538'
p1190
ag287
ag964
ag115
ag792
ag261
ag126
ag982
aS'b1095'
p1191
ag300
ag710
ag944
ag1015
aS'b178'
p1192
ag167
ag383
ag1084
aS'b893'
p1193
aS'b247'
p1194
ag748
ag1072
ag430
ag858
ag366
ag713
ag208
ag228
ag140
ag1099
ag568
ag106
ag731
ag689
ag926
ag138
ag468
ag539
ag831
ag82
ag454
ag443
ag45
ag1127
ag803
ag628
ag1110
aS'b1020'
p1195
ag655
ag759
ag912
ag793
ag1066
ag1085
ag67
aS'b1742'
p1196
ag16
ag1159
aS'b93'
p1197
ag296
ag240
ag948
aS'b1287'
p1198
ag641
ag233
ag181
ag266
ag1012
ag1115
aS'b328'
p1199
aS'b1113'
p1200
aa(lp1201
g160
ag250
ag1154
ag704
aS'b1536'
p1202
ag1111
ag977
ag89
ag1081
ag1137
ag1167
ag1125
ag325
ag918
aS'b678'
p1203
ag95
ag56
ag344
ag888
ag1117
ag980
ag147
ag207
ag825
ag845
aS'b506'
p1204
ag128
ag400
ag306
ag481
ag697
ag1077
ag1027
ag818
ag1057
ag599
aS'b464'
p1205
ag929
ag528
ag284
ag228
ag684
aS'b642'
p1206
ag150
ag797
ag139
ag3
aS'b1039'
p1207
ag1183
ag380
ag808
aS'b1736'
p1208
ag1048
ag969
ag1106
ag786
ag1156
ag687
ag620
aS'b499'
p1209
ag723
ag217
aS'b1510'
p1210
ag31
ag230
ag452
ag916
aS'b629'
p1211
ag430
ag476
ag330
ag263
ag364
ag204
ag815
ag542
ag660
ag220
ag189
aS'b358'
p1212
ag498
ag191
ag582
ag190
aS'b178'
p1213
ag1042
ag592
ag371
ag281
ag334
ag873
ag1074
ag958
ag802
ag1186
ag302
aS'b785'
p1214
ag501
ag391
ag14
aa(lp1215
g1144
ag284
ag863
ag610
ag512
aS'b73'
p1216
ag928
ag416
ag1035
ag543
ag908
ag413
ag297
ag256
ag1090
ag105
ag796
ag635
ag732
ag1200
ag1031
ag379
ag510
ag128
ag1016
ag790
ag395
aS'b907'
p1217
ag592
ag1181
ag1132
ag723
ag316
ag135
ag231
ag1080
ag6
ag496
ag104
aS'b235'
p1218
ag716
ag1076
aS'b287'
p1219
ag550
aS'b1353'
p1220
ag844
ag130
ag343
ag823
aS'b1443'
p1221
ag80
ag452
ag148
aS'b115'
p1222
ag735
ag572
aS'b947'
p1223
aS'b193'
p1224
ag631
aS'b1006'
p1225
aS'b28'
p1226
ag386
ag1167
ag970
ag748
aS'b206'
p1227
ag489
ag63
ag822
ag734
aS'b873'
p1228
ag367
ag1118
ag147
ag183
ag1006
ag207
ag501
aS'b1196'
p1229
aS'b938'
p1230
ag294
aS'b134'
p1231
aS'b1317'
p1232
ag10
ag484
ag156
ag783
ag548
ag65
ag1196
aS'b871'
p1233
aS'b77'
p1234
ag646
ag687
ag295
ag919
ag875
aS'b1630'
p1235
aS'b168'
p1236
ag555
aa(lp1237
S'b394'
p1238
ag1228
ag656
ag305
ag142
ag1174
ag821
ag1124
ag708
ag267
ag1100
ag1140
ag738
ag753
ag674
ag1231
aS'b118'
p1239
ag81
ag467
ag239
aS'b1020'
p1240
ag907
ag731
aS'b315'
p1241
ag78
ag235
ag80
ag948
ag424
ag1094
ag1044
aS'b1506'
p1242
ag1210
ag432
ag905
ag974
ag881
ag716
ag553
ag1233
ag757
ag46
ag1225
aS'b1329'
p1243
ag671
ag367
ag1223
ag943
ag688
ag503
ag35
aS'b1423'
p1244
ag332
ag49
ag478
ag455
ag877
ag951
ag1081
ag515
ag246
ag309
ag1205
ag882
ag1158
ag952
ag869
ag1168
aS'b1517'
p1245
ag996
ag772
ag74
aS'b1120'
p1246
ag724
ag362
ag1054
ag62
ag388
ag190
ag184
ag749
ag576
ag67
ag669
aS'b3'
p1247
ag999
ag868
ag766
ag603
ag728
ag454
ag346
ag408
ag720
ag275
ag1217
ag844
aS'b399'
p1248
aS'b960'
p1249
ag597
aa(lp1250
g1137
aS'b1335'
p1251
ag1089
ag412
ag201
ag377
aS'b1111'
p1252
ag403
ag29
ag509
ag1065
ag719
ag67
ag442
ag903
ag986
ag1034
ag629
ag414
aS'b538'
p1253
aS'b290'
p1254
ag492
ag573
ag525
ag734
ag543
ag70
ag884
ag796
ag832
aS'b1206'
p1255
ag1202
aS'b811'
p1256
ag524
ag749
ag358
ag724
ag1238
ag873
ag987
ag880
ag985
ag406
ag273
aS'b1448'
p1257
ag487
ag481
ag76
aS'b325'
p1258
ag193
ag5
ag1204
ag762
ag426
ag8
ag282
ag950
ag974
ag320
ag989
ag537
ag887
ag908
ag332
ag386
ag810
aS'b895'
p1259
ag1136
ag540
ag844
ag1093
ag610
aS'b1335'
p1260
ag139
ag278
ag1081
aS'b1043'
p1261
ag559
ag350
ag1239
ag9
ag692
ag917
ag813
ag830
aS'b146'
p1262
aS'b1070'
p1263
ag364
ag939
ag852
ag1129
ag695
ag542
ag223
ag26
ag706
ag466
aS'b470'
p1264
ag1071
ag883
aa(lp1265
g468
ag683
ag826
ag1261
ag991
ag543
ag113
ag1169
aS'b42'
p1266
ag416
ag1228
ag953
ag1049
ag48
ag57
ag155
ag540
ag1143
ag327
ag179
ag266
ag215
ag1214
ag1097
ag1220
ag1136
aS'b174'
p1267
ag195
ag905
ag357
ag37
ag794
ag803
ag954
ag377
ag702
ag240
ag1037
aS'b1037'
p1268
aS'b1034'
p1269
aS'b1106'
p1270
ag1036
aS'b83'
p1271
ag61
ag324
ag149
ag122
ag786
ag162
ag865
ag902
ag1253
aS'b1386'
p1272
ag310
ag660
ag687
ag250
aS'b469'
p1273
ag114
ag913
ag692
aS'b772'
p1274
ag551
ag339
ag907
ag1177
ag1165
ag572
ag314
ag923
ag1090
ag245
ag116
ag611
ag421
ag774
ag463
ag993
ag832
ag1202
ag984
ag20
ag867
ag429
ag1128
aS'b916'
p1275
ag524
ag1211
ag423
aS'b237'
p1276
ag766
ag273
ag349
aS'b258'
p1277
ag217
ag435
ag76
ag1031
aS'b54'
p1278
aS'b1263'
p1279
aa(lp1280
g1258
aS'b390'
p1281
ag622
ag634
ag696
ag162
ag648
aS'b1266'
p1282
ag1259
ag477
ag771
ag1156
ag508
aS'b584'
p1283
ag73
ag467
ag253
ag932
ag49
ag469
ag99
ag835
aS'b935'
p1284
aS'b174'
p1285
ag930
ag1124
ag964
ag1157
ag755
aS'b928'
p1286
ag626
ag803
aS'b128'
p1287
aS'b837'
p1288
aS'b1179'
p1289
ag304
ag104
aS'b136'
p1290
aS'b1037'
p1291
ag1173
ag562
ag953
ag677
ag137
ag101
ag536
ag1032
ag29
ag457
ag27
ag462
ag58
ag365
ag211
ag653
ag1209
aS'b1096'
p1292
ag675
ag1062
ag1017
ag1169
ag714
ag329
ag1065
aS'b98'
p1293
ag1142
ag1219
aS'b1131'
p1294
ag94
ag224
ag563
ag1166
ag863
ag264
ag826
ag138
ag1228
ag1114
ag302
ag1225
ag1244
ag514
ag1254
aS'b977'
p1295
ag1081
ag74
ag177
ag280
ag1041
ag715
ag1130
ag1143
ag346
ag343
ag1054
ag977
ag651
ag1273
ag1078
aS'b1461'
p1296
aa(lp1297
S'b225'
p1298
ag24
ag671
ag1295
ag473
ag1255
ag367
ag1165
ag243
ag567
ag9
ag822
ag122
ag664
ag1278
ag107
ag442
ag180
aS'b630'
p1299
ag661
ag982
ag796
ag555
ag866
ag988
ag247
ag596
ag879
ag742
ag881
ag791
ag141
ag337
aS'b1692'
p1300
ag222
ag236
ag568
ag60
ag1022
ag20
ag195
ag238
ag1066
ag600
ag1146
aS'b853'
p1301
ag775
ag1209
ag98
ag1177
ag650
aS'b1621'
p1302
ag1164
aS'b1329'
p1303
ag603
ag296
ag1230
ag129
ag221
ag556
ag120
ag672
ag919
aS'b1002'
p1304
ag1073
ag732
aS'b708'
p1305
ag1021
ag1268
ag604
ag146
ag1199
aS'b1047'
p1306
aS'b362'
p1307
ag373
ag917
ag802
ag62
ag315
ag313
ag509
ag646
ag428
ag1027
ag206
ag1212
ag65
ag379
ag1220
ag162
ag268
ag1200
ag158
ag1273
ag237
ag1155
ag305
ag169
ag1231
ag678
aa(lp1308
g328
aS'b104'
p1309
ag956
ag404
ag1192
ag261
aS'b186'
p1310
ag436
ag694
ag1025
ag255
ag958
ag949
ag1036
aS'b1077'
p1311
aS'b903'
p1312
ag266
aS'b1211'
p1313
ag665
ag999
ag1196
ag1249
ag1295
ag345
ag554
ag741
ag819
ag43
ag138
ag649
ag508
ag785
ag986
ag380
ag224
ag281
ag855
ag1077
ag1017
ag444
ag353
ag471
aS'b1483'
p1314
ag9
ag376
ag424
ag860
ag520
ag6
ag28
ag1174
ag657
ag1079
ag888
ag323
aS'b1428'
p1315
ag948
ag876
ag853
ag332
ag553
ag635
ag232
ag738
ag299
ag852
ag1256
ag71
ag1138
ag706
aS'b882'
p1316
aS'b617'
p1317
ag429
ag1102
ag38
ag459
ag1023
ag53
ag1221
ag628
ag1165
aS'b233'
p1318
ag676
ag1210
ag1022
ag689
ag134
ag1233
ag143
ag992
ag555
ag762
ag1170
ag900
ag1181
ag357
ag238
ag647
aS'b1275'
p1319
ag1275
aa(lp1320
g386
ag184
ag532
ag67
ag513
ag384
ag659
ag126
ag509
ag488
aS'b839'
p1321
ag1020
ag1301
ag1173
ag661
ag770
ag269
ag338
ag885
ag545
ag765
ag502
ag1185
ag842
ag133
ag1010
ag564
aS'b772'
p1322
ag1138
ag486
ag830
ag392
ag529
aS'b892'
p1323
ag815
ag1104
aS'b949'
p1324
ag83
ag1198
ag1051
ag782
ag811
ag642
ag173
ag809
ag1071
ag917
ag346
ag388
ag721
aS'b1365'
p1325
ag112
ag1115
ag776
aS'b176'
p1326
ag316
ag893
ag473
ag4
ag1122
ag1235
ag1211
ag1268
ag1186
ag342
ag671
ag861
ag304
aS'b1229'
p1327
ag1114
aS'b839'
p1328
ag1102
aS'b1737'
p1329
ag876
ag246
ag53
aS'b1117'
p1330
ag429
ag604
ag854
ag520
ag413
ag536
ag759
ag757
ag865
ag766
ag297
ag295
ag647
aS'b1268'
p1331
ag950
ag397
ag646
ag953
ag505
ag1124
ag1264
ag439
ag417
aa(lp1332
g64
ag801
ag815
ag157
ag355
ag932
ag878
ag1026
aS'b1639'
p1333
ag137
ag417
ag643
ag447
ag175
ag282
ag597
ag1195
ag558
ag407
aS'b250'
p1334
ag963
ag1180
ag479
ag1216
ag1025
ag606
ag749
ag732
aS'b868'
p1335
ag378
aS'b549'
p1336
ag880
ag409
ag1113
ag1287
ag684
ag1197
ag690
aS'b232'
p1337
ag277
ag322
ag202
ag1251
ag135
aS'b614'
p1338
ag913
ag914
ag1203
ag321
ag1220
ag1016
ag580
aS'b1224'
p1339
aS'b1035'
p1340
ag1199
ag1225
ag611
ag653
aS'b761'
p1341
ag1186
ag869
ag67
ag133
aS'b1073'
p1342
ag1306
ag1104
ag938
ag1206
ag519
aS'b1045'
p1343
ag317
ag413
ag499
ag575
ag799
ag652
ag22
ag343
ag1007
ag945
aS'b1579'
p1344
ag1079
aS'b1190'
p1345
ag490
ag876
aS'b1330'
p1346
ag1000
ag1061
ag995
ag78
ag1281
ag983
ag338
ag899
ag592
aS'b216'
p1347
ag1277
ag760
ag373
ag1176
aa(lp1348
g1231
ag1211
ag1294
ag845
ag325
ag309
ag392
ag833
ag480
aS'b1617'
p1349
ag360
ag1024
ag530
ag1194
ag304
ag999
ag1129
ag763
aS'b929'
p1350
ag604
ag328
ag233
ag727
aS'b933'
p1351
aS'b110'
p1352
ag354
ag495
aS'b499'
p1353
ag1281
ag324
ag1270
ag194
ag1345
ag1015
ag824
ag921
ag777
ag1019
ag497
ag634
ag107
ag132
ag1338
ag933
ag350
ag1101
ag228
ag1018
aS'b1324'
p1354
ag983
ag676
ag407
ag600
ag203
ag736
ag267
ag248
ag875
ag36
ag555
ag1121
ag379
ag1210
aS'b1140'
p1355
ag883
ag493
ag520
ag610
ag1274
ag666
ag1165
ag671
ag651
ag476
ag1132
ag343
aS'b222'
p1356
ag472
ag1220
ag934
ag1116
ag490
ag978
ag1275
ag1256
ag1196
ag262
ag1143
ag1148
ag685
ag991
ag249
ag564
aS'b819'
p1357
ag336
ag984
ag188
ag33
ag220
ag1166
aa(lp1358
g1087
ag1086
ag981
ag482
ag847
ag103
ag838
ag1289
ag1247
ag1048
ag878
ag158
ag990
ag1248
ag1119
ag874
ag128
ag951
ag1224
ag339
ag65
ag207
ag603
ag756
ag762
ag300
ag426
ag832
ag1172
ag1016
ag623
ag1298
ag220
ag575
ag676
ag442
ag298
ag388
ag261
ag1036
ag1300
ag652
ag639
ag278
ag369
ag834
ag272
ag332
ag920
ag1145
aS'b142'
p1359
ag1263
ag407
ag799
ag478
ag367
ag270
ag699
ag105
ag1095
ag863
ag716
aS'b1710'
p1360
ag33
ag1113
ag237
ag1342
ag1294
ag646
ag1008
aS'b1541'
p1361
aS'b381'
p1362
ag619
ag1211
ag911
ag219
ag889
ag290
ag316
ag77
ag46
ag36
ag992
ag403
ag657
ag1107
ag645
ag877
ag235
aS'b592'
p1363
ag99
ag1291
ag1278
ag170
ag1074
ag980
aS'b208'
p1364
ag514
ag232
ag1096
aa(lp1365
g542
ag621
ag806
ag366
ag344
ag527
ag943
ag156
ag1116
ag679
ag395
ag1236
ag547
ag1200
ag353
ag1177
ag785
ag376
ag1326
ag133
ag1063
ag1239
ag1363
ag955
ag1279
ag1076
ag262
ag682
ag254
ag1291
ag83
ag361
ag588
ag1152
ag758
ag193
ag1077
ag997
ag288
ag1232
ag130
ag29
ag418
ag1052
ag790
ag63
ag699
ag1350
ag1105
ag273
ag1266
ag499
ag1195
ag752
aS'b247'
p1366
ag804
ag314
ag685
ag696
ag1192
ag84
ag1068
ag258
ag756
ag883
ag551
ag281
ag1065
ag744
ag1072
ag984
ag912
ag69
ag783
aS'b571'
p1367
ag250
ag76
ag195
ag574
ag108
ag142
ag259
ag248
ag1006
ag923
ag427
ag152
ag55
ag594
ag535
ag386
ag409
ag1132
ag865
aS'b1217'
p1368
aS'b350'
p1369
ag492
ag105
ag917
ag657
aa(lp1370
S'b1614'
p1371
ag1367
ag1339
ag1228
ag19
ag331
aS'b243'
p1372
ag1014
ag412
ag1101
ag249
ag738
aS'b710'
p1373
ag951
ag975
ag769
ag1369
ag511
aS'b307'
p1374
ag121
ag957
ag1024
ag1155
ag315
ag1242
ag210
ag1318
ag392
ag240
ag1097
ag702
ag274
ag478
ag880
ag595
ag25
aS'b127'
p1375
ag1176
ag1216
ag336
ag420
ag159
ag441
aS'b216'
p1376
ag1179
ag909
ag215
aS'b871'
p1377
ag1112
ag963
ag613
ag405
aS'b148'
p1378
ag1305
ag122
ag56
ag1074
ag735
ag39
ag995
ag35
ag1071
aS'b1071'
p1379
ag762
ag334
ag539
ag1085
ag403
ag255
ag582
ag1301
ag961
ag134
ag1184
ag426
ag605
aS'b1661'
p1380
ag1192
ag602
ag1231
ag1015
ag51
ag1336
ag1307
ag187
ag732
ag766
ag277
ag937
ag1181
ag558
ag681
ag734
ag968
ag272
ag340
ag43
ag113
ag366
ag264
aa(lp1381
g1243
ag766
ag406
ag968
ag1091
ag67
ag545
ag199
ag932
ag1028
ag851
ag171
ag1306
ag386
ag1011
aS'b78'
p1382
ag960
ag1181
ag1327
ag374
ag440
ag127
ag552
ag438
ag503
ag827
ag1159
ag899
ag268
ag1258
ag253
ag658
ag799
ag924
ag837
ag736
ag600
ag1340
ag449
ag1233
ag1068
aS'b224'
p1383
ag675
ag1099
ag1065
ag1178
ag842
ag36
ag884
ag507
ag789
ag1165
ag1214
ag1096
ag791
ag274
ag1149
ag441
ag204
ag224
ag567
ag252
ag376
ag50
ag468
ag676
ag439
ag251
ag399
ag628
ag26
ag882
ag746
ag384
ag162
ag777
ag105
ag941
ag447
ag819
ag56
ag1188
aS'b1020'
p1384
ag603
ag670
ag367
ag817
ag597
ag433
ag1208
ag665
ag1285
ag745
ag689
ag682
aS'b1564'
p1385
ag1038
ag345
ag77
ag40
aa(lp1386
g1293
ag1148
ag1002
ag1135
ag1231
ag931
ag262
ag369
ag434
ag1357
ag1343
ag946
ag227
ag107
ag808
ag1053
ag212
ag539
ag1350
ag830
ag130
aS'b858'
p1387
ag133
ag549
aS'b461'
p1388
ag826
ag80
ag1071
ag184
ag193
ag624
ag313
ag381
ag19
ag661
ag237
ag129
ag615
ag918
ag126
ag582
ag724
ag281
aS'b1063'
p1389
ag491
ag1137
ag542
aS'b1008'
p1390
ag1059
ag575
ag436
aS'b1438'
p1391
ag362
ag842
ag1173
ag123
ag655
ag643
ag509
ag1279
ag463
ag616
ag512
ag504
ag859
ag1335
ag447
ag1036
ag331
ag397
ag894
ag893
ag379
aS'b1071'
p1392
ag112
ag953
ag1114
ag1336
ag125
ag1097
ag938
ag277
ag169
aS'b1135'
p1393
ag1106
ag885
ag236
ag121
aS'b196'
p1394
aS'b622'
p1395
ag249
ag316
ag1210
ag90
ag755
ag1062
ag932
aS'b1456'
p1396
aS'b1620'
p1397
ag1359
aa(lp1398
g1142
ag659
ag937
ag250
ag538
ag438
ag1267
ag204
ag868
ag841
ag546
ag950
ag529
ag920
ag387
aS'b678'
p1399
ag792
ag1049
ag712
ag394
ag678
ag1198
ag278
ag653
ag645
ag453
ag1096
ag1330
ag226
aS'b1467'
p1400
ag1020
aS'b1504'
p1401
ag69
ag931
ag1028
ag218
aS'b1345'
p1402
ag478
ag377
ag1225
ag827
ag429
ag55
ag29
ag936
ag184
ag1336
ag533
ag1194
ag686
ag418
ag493
ag660
aS'b1516'
p1403
ag221
ag465
ag609
ag452
ag767
ag492
ag153
ag209
aS'b1485'
p1404
ag992
ag621
ag109
ag560
ag39
ag1183
ag431
ag346
ag1121
aS'b916'
p1405
ag1091
ag730
ag247
ag350
aS'b413'
p1406
ag139
ag1359
ag100
ag1132
ag1377
ag1110
ag1039
ag1256
ag623
ag779
ag783
ag983
ag692
ag525
ag876
ag324
ag491
ag1176
ag619
ag170
ag131
ag1027
aa(lp1407
g969
ag719
ag989
ag1143
ag809
ag736
ag1230
ag84
ag681
ag1219
ag952
ag838
ag374
ag1019
ag1406
ag1036
ag112
aS'b173'
p1408
aS'b1279'
p1409
ag858
ag483
ag1245
aS'b824'
p1410
ag1325
ag572
ag1331
ag85
ag624
ag647
ag760
aS'b627'
p1411
ag971
ag921
aS'b8'
p1412
ag1262
ag32
ag1024
ag782
ag890
aS'b258'
p1413
ag5
aS'b346'
p1414
ag1214
ag93
ag695
ag702
ag1354
ag717
ag148
ag140
ag29
ag763
ag386
ag264
ag918
ag876
ag662
ag1146
ag1125
aS'b967'
p1415
ag776
ag1015
ag746
ag73
ag821
ag1301
ag429
ag17
ag733
ag677
ag888
aS'b239'
p1416
ag151
ag365
ag523
ag739
ag284
ag150
ag1084
ag3
ag1099
aS'b538'
p1417
ag738
ag473
ag631
aS'b454'
p1418
ag1037
ag525
aS'b513'
p1419
ag54
ag439
ag815
ag564
ag938
ag185
ag447
ag392
ag1007
ag1153
ag845
aa(lp1420
g1129
aS'b1370'
p1421
ag1186
ag964
ag811
ag959
ag843
ag624
ag318
ag288
ag470
ag45
ag677
ag994
ag657
ag1003
ag1110
ag188
ag1402
aS'b267'
p1422
aS'b269'
p1423
aS'b188'
p1424
ag645
ag803
ag1183
ag1362
ag973
ag54
ag962
ag976
ag938
ag774
ag1173
ag1377
ag1164
ag180
ag1283
aS'b571'
p1425
ag721
ag56
ag1195
ag192
ag1188
ag290
ag737
ag654
ag418
ag1004
ag211
ag168
ag182
ag346
ag1158
ag795
ag293
ag222
ag5
aS'b592'
p1426
ag391
ag387
ag1371
ag408
ag334
ag488
ag135
ag237
ag623
aS'b1510'
p1427
ag1086
ag1171
ag1211
ag1118
aS'b525'
p1428
ag605
ag115
ag1151
ag1401
ag919
ag916
ag1062
ag1288
ag137
ag496
ag749
ag1272
aS'b1442'
p1429
ag130
ag1165
ag1119
ag302
ag1410
ag632
ag231
ag1095
ag59
ag872
ag1243
ag593
ag69
ag857
aa(lp1430
g686
ag444
ag696
ag1282
ag940
ag866
ag500
ag282
ag73
ag578
ag467
aS'b1428'
p1431
ag121
ag1110
ag561
ag545
ag355
ag173
ag998
ag971
ag1323
ag1256
ag752
ag164
ag639
ag1244
ag237
ag1200
ag518
ag1219
ag678
ag135
ag296
ag1410
ag1003
ag233
ag567
ag169
ag185
ag377
ag1176
ag822
ag388
ag577
ag300
ag625
aS'b1740'
p1432
ag103
aS'b991'
p1433
ag325
ag999
ag273
ag717
ag547
aS'b1054'
p1434
ag37
ag1417
ag140
ag856
ag1007
ag1271
ag1019
ag952
ag1205
ag932
ag673
ag823
ag879
ag579
ag302
ag1109
ag644
ag616
ag1319
ag1367
ag4
ag1317
ag259
ag267
ag204
ag1406
ag1055
ag456
ag192
ag737
ag1233
ag516
ag779
ag768
ag1425
ag1085
ag440
ag804
ag1214
ag337
ag1195
ag438
ag146
ag925
ag1088
aa(lp1435
g178
ag870
ag1144
ag1168
ag864
ag365
ag83
ag1156
ag828
ag193
ag347
ag813
ag1273
ag1014
ag226
ag333
ag228
ag1090
ag1152
ag1031
ag509
ag763
ag246
ag536
ag69
ag362
ag963
ag4
ag829
ag526
ag177
ag11
ag164
ag353
ag719
ag1000
ag766
ag1342
ag361
ag874
ag1310
ag1084
ag670
ag1306
ag1347
ag726
ag867
ag249
ag175
ag391
ag1318
ag814
ag1058
ag444
ag1375
ag1299
ag964
ag1214
aS'b1315'
p1436
ag380
ag1424
aS'b169'
p1437
ag1146
ag86
ag1282
ag197
ag180
ag468
ag134
ag663
ag232
ag328
ag1302
ag784
ag555
ag959
ag317
ag521
ag467
ag971
ag67
ag131
ag22
ag1174
ag1002
ag280
ag149
ag873
ag55
ag118
ag377
ag520
ag477
ag577
ag517
ag887
ag32
ag1183
ag1321
ag843
aa(lp1438
S'b417'
p1439
ag1000
ag465
ag1174
ag1133
ag920
ag899
ag457
aS'b1252'
p1440
ag559
ag343
ag967
ag1396
ag956
ag653
ag523
ag660
ag852
ag73
ag392
ag1024
ag253
ag1147
ag989
ag1081
ag1289
ag173
ag738
ag830
aS'b106'
p1441
ag1286
ag1034
ag84
ag843
ag439
ag364
ag1063
ag959
ag165
ag76
ag429
ag623
aS'b250'
p1442
ag244
ag88
ag1247
ag536
ag36
ag528
ag1399
ag784
ag611
ag394
ag1305
aS'b858'
p1443
ag209
ag90
ag884
ag827
ag1008
ag670
ag970
aS'b280'
p1444
ag1188
ag1418
aS'b1195'
p1445
ag1378
ag269
ag1159
ag435
ag161
aS'b1181'
p1446
ag854
ag861
ag1037
ag832
ag172
ag94
ag1225
ag239
ag904
ag1283
ag341
ag749
ag419
ag815
ag1039
ag196
ag382
ag1056
ag598
ag361
ag54
ag968
ag720
ag1019
ag695
ag92
ag66
ag614
aa(lp1447
g780
ag459
ag1258
ag1313
ag96
ag310
ag717
ag331
ag454
ag356
ag1218
ag1330
ag219
ag335
ag74
ag1260
ag954
ag799
ag981
ag33
ag157
ag252
ag909
ag953
ag145
aS'b915'
p1448
ag1395
ag262
ag826
ag738
ag1169
ag250
ag1428
ag610
ag140
ag1372
ag116
ag428
ag831
ag155
ag1014
ag925
ag118
ag709
ag777
ag850
ag1300
ag630
ag1296
ag704
ag827
ag109
ag1042
ag1038
ag711
ag1029
ag275
ag179
ag1302
ag823
ag337
ag398
ag308
ag605
ag160
ag364
ag312
aS'b1448'
p1449
ag379
ag941
ag1239
ag1290
ag1367
ag1115
ag653
ag790
ag968
ag839
ag1429
ag330
ag495
ag661
ag50
aS'b450'
p1450
ag390
ag884
ag1102
ag264
ag412
ag468
ag1025
aS'b916'
p1451
ag1051
ag509
ag559
ag562
ag1022
ag424
ag1233
ag886
aa(lp1452
g77
ag536
ag1272
ag166
ag1343
ag1230
ag1373
ag1142
ag928
ag860
aS'b1471'
p1453
ag1397
ag1236
ag739
ag693
ag446
ag791
ag778
ag802
ag1174
ag296
ag371
ag124
ag1317
ag280
ag960
ag530
ag1422
ag938
ag638
ag707
ag847
ag568
ag820
ag786
ag433
aS'b1106'
p1454
ag401
ag781
ag497
ag566
aS'b1743'
p1455
ag483
ag130
ag769
ag749
ag967
ag628
ag275
ag427
aS'b1311'
p1456
ag649
ag1163
ag1451
ag827
ag1309
ag631
ag1028
ag689
ag1004
ag169
ag1154
ag121
ag1242
ag681
ag1270
ag163
ag475
ag1110
aS'b176'
p1457
ag109
ag728
ag46
ag1081
ag438
ag1261
ag895
ag894
ag132
ag662
ag373
ag1363
ag602
ag987
ag748
ag836
ag212
ag777
ag1067
ag770
ag340
ag1293
ag365
ag150
ag1302
ag141
ag1139
ag947
ag1322
ag632
aa(lp1458
g1385
ag845
ag149
ag555
ag1162
ag51
ag390
ag147
ag1205
ag961
ag944
ag1329
ag1278
ag427
ag430
aS'b1653'
p1459
ag185
ag766
ag395
ag208
ag641
ag519
ag1075
ag1432
ag587
ag1212
ag488
ag412
ag1362
ag774
ag236
ag1183
ag1190
ag572
ag217
ag1451
ag260
ag220
ag1434
ag129
ag1097
ag91
ag776
aS'b127'
p1460
ag240
ag1443
ag567
ag88
ag474
ag1214
ag686
ag509
ag511
ag1224
ag1355
ag1106
ag109
ag172
ag760
ag1226
ag1388
ag553
ag775
ag554
ag1235
ag1107
ag853
ag1352
ag21
ag40
ag332
ag1048
ag1353
ag348
ag25
ag1228
ag676
ag634
ag1291
ag752
ag1210
ag341
aS'b1645'
p1461
ag662
ag141
ag912
ag1129
ag681
ag22
ag854
ag850
ag171
ag487
ag747
ag186
ag741
ag735
ag136
ag574
ag1029
aa(lp1462
g850
ag519
ag386
ag462
ag28
ag393
ag1299
ag935
ag20
ag442
ag939
ag1268
ag54
ag1432
ag852
aS'b1036'
p1463
ag1300
ag1173
ag1109
ag304
ag231
ag404
ag804
ag323
ag12
ag1032
ag159
ag1178
ag349
ag415
aS'b394'
p1464
ag395
ag1350
ag1064
ag486
ag560
ag625
ag1292
ag917
ag1330
ag1054
ag1130
ag1075
ag343
ag883
ag512
ag1387
ag213
ag760
ag18
ag390
ag257
aS'b740'
p1465
ag330
ag1207
ag131
ag821
ag638
ag565
ag139
ag1236
ag140
ag121
ag1055
ag270
ag81
ag1015
ag550
ag587
ag1339
ag1240
ag775
ag1273
ag1448
ag568
ag1446
ag600
ag548
ag242
ag944
ag112
ag925
aS'b213'
p1466
ag1026
ag49
ag594
ag1041
ag52
ag379
ag1259
ag383
ag820
ag346
ag1404
ag580
aS'b138'
p1467
ag891
ag590
ag647
ag534
aa(lp1468
S'b913'
p1469
ag338
ag1225
ag3
ag928
ag1026
ag1296
ag884
ag54
ag38
ag472
ag1071
ag829
ag1350
ag520
ag1007
ag389
aS'b657'
p1470
ag933
ag1305
aS'b846'
p1471
ag1364
ag846
ag301
ag513
ag1010
ag1387
ag912
ag420
ag771
ag675
ag332
ag549
ag1195
ag548
ag26
ag615
ag621
ag480
ag168
ag1379
ag945
ag43
ag210
ag611
ag1341
ag847
ag473
ag429
ag525
ag591
ag1214
ag1457
ag641
ag463
ag642
ag924
ag421
ag765
ag1140
ag1367
ag1167
ag266
ag449
aS'b984'
p1472
ag756
ag1005
ag1070
ag1252
ag76
ag614
ag1285
ag514
ag1432
ag303
ag839
aS'b1477'
p1473
ag355
ag50
ag782
ag23
ag400
ag269
ag1154
ag1157
ag328
ag813
ag1290
ag737
ag1389
ag1303
ag1033
aS'b1619'
p1474
ag113
ag260
ag48
ag212
ag577
ag28
ag9
aa(lp1475
g1357
ag22
ag738
ag1442
ag386
ag395
ag1141
ag528
ag633
ag1055
ag655
ag413
ag750
ag1227
ag867
ag1020
ag126
ag535
ag504
ag1140
ag379
ag1460
ag1324
ag554
ag1243
ag1086
ag895
ag1220
ag460
ag1350
aS'b1143'
p1476
ag303
ag15
ag1117
ag838
ag869
ag256
ag88
ag1310
ag1226
ag806
ag1385
ag1292
ag484
aS'b731'
p1477
ag1461
ag47
ag205
ag137
ag1077
ag802
ag726
ag194
ag768
ag429
aS'b498'
p1478
ag258
ag862
ag208
ag1047
ag724
ag766
ag737
ag933
ag1277
ag487
ag447
ag1473
ag877
ag1007
ag17
ag121
ag220
ag309
ag1043
ag526
ag1325
ag719
ag539
ag593
ag606
ag207
ag709
ag1048
ag563
ag278
ag623
ag645
ag1304
ag432
aS'b605'
p1479
ag494
ag874
ag150
ag1206
ag1119
ag1230
ag1137
ag472
ag1127
aa(lp1480
g1134
ag192
ag59
ag270
ag350
ag384
ag1094
ag407
ag1032
ag19
ag449
ag603
ag290
ag1399
ag52
ag291
ag504
ag185
ag1108
ag298
ag539
ag94
ag958
ag706
ag825
ag631
ag87
ag364
ag419
ag709
ag12
ag675
ag1334
ag619
ag1005
ag996
ag1258
ag16
ag1043
ag261
ag405
ag1067
ag238
ag483
ag369
ag953
ag507
ag655
ag1110
ag650
ag1313
ag244
ag960
ag903
ag396
ag13
ag664
ag1154
ag734
ag921
ag863
ag660
ag1446
ag613
ag812
ag580
ag154
ag1192
ag475
ag754
ag1117
ag501
ag159
ag1030
ag256
ag458
ag936
ag670
ag1120
ag803
ag887
ag780
ag1052
ag1248
ag980
ag316
ag1041
ag190
ag1413
ag95
aS'b1190'
p1481
ag813
ag1433
ag267
ag263
ag666
ag545
ag862
ag56
ag1279
aa(lp1482
g1454
ag220
aS'b215'
p1483
ag991
ag32
ag115
ag1195
ag411
ag169
ag591
ag1104
ag1086
ag1220
ag1092
ag217
ag548
ag400
ag624
ag1200
ag1402
ag322
ag272
ag782
ag1155
ag599
ag325
ag1466
ag1316
ag848
ag959
aS'b547'
p1484
ag258
ag1226
ag1299
ag525
ag1460
ag132
ag837
ag672
ag564
ag337
ag496
ag15
ag324
ag1355
ag129
ag151
ag416
ag1323
ag652
ag1214
ag971
aS'b580'
p1485
ag146
ag632
ag844
ag148
ag88
ag1018
ag92
ag734
ag251
ag1380
ag1077
ag1005
ag1145
ag1223
ag664
ag622
ag765
ag998
ag709
ag707
ag809
ag156
ag985
ag952
ag1136
ag256
ag612
ag1279
ag331
ag661
ag1427
ag112
ag1032
ag80
ag818
ag413
ag50
ag445
ag554
ag54
ag388
ag1198
ag63
ag1119
ag78
ag1127
ag706
aa(lp1486
g856
ag1055
ag2
ag36
ag1285
ag698
ag1382
ag1088
ag1296
ag702
ag246
ag906
ag552
ag134
ag1460
ag1105
ag1125
ag1113
ag972
ag620
ag850
ag741
ag54
ag583
ag1050
ag409
ag406
ag245
aS'b100'
p1487
ag1355
ag394
ag421
ag338
ag173
ag476
ag762
ag50
ag362
ag1066
ag444
ag453
ag1024
ag968
ag1412
ag916
ag32
ag1108
ag1410
ag1310
ag771
ag194
ag417
ag694
ag1230
ag471
ag161
ag818
ag1129
ag454
ag681
ag550
ag891
ag669
ag729
ag1107
ag1376
ag1298
ag1124
ag713
ag1081
ag307
ag45
ag292
ag1210
ag1241
ag334
ag143
ag957
ag1195
ag1075
ag1137
ag49
ag660
ag386
ag885
ag428
ag742
ag1122
ag790
ag908
ag1203
ag1343
ag1403
ag191
ag613
ag426
ag548
ag1063
ag286
ag1152
aa(lp1488
g430
ag771
ag1260
ag1025
ag590
ag1112
ag655
aS'b260'
p1489
ag1424
ag105
ag598
ag1281
ag1350
ag938
ag1279
ag523
ag204
ag954
ag1448
ag1357
ag1465
ag348
ag373
ag1135
ag1065
ag674
ag431
ag418
ag733
ag1457
ag224
ag527
aS'b1556'
p1490
ag56
ag920
ag1325
ag1412
ag478
ag116
ag578
ag1055
aS'b143'
p1491
ag1142
ag653
ag22
ag15
ag11
ag1317
ag677
ag1103
ag294
ag1174
ag607
ag1346
ag932
ag924
ag897
ag792
ag229
ag667
ag1298
ag16
ag817
ag1313
ag1005
ag995
ag152
ag854
ag309
ag1429
ag492
ag436
ag92
ag1433
ag959
ag1360
ag398
ag141
ag992
ag413
ag503
ag530
ag967
ag440
ag1068
ag1385
ag659
ag1179
ag584
ag1034
ag806
ag769
ag278
ag281
ag814
ag953
ag597
ag690
ag864
ag784
aa(lp1492
g40
ag1436
ag1285
ag1423
ag442
ag270
ag1186
ag530
ag1379
ag796
ag545
ag799
ag733
ag462
ag891
ag93
ag655
ag1167
ag1260
ag423
ag316
ag458
ag272
ag875
ag895
ag1136
ag339
ag1461
ag351
ag739
ag245
ag456
ag247
ag763
aS'b224'
p1493
ag885
ag1406
ag1203
ag195
ag695
ag519
aS'b1436'
p1494
ag744
ag1044
ag274
ag708
ag1086
ag721
ag15
ag388
ag958
ag1236
ag806
ag350
ag515
ag491
ag550
ag128
ag174
ag25
aS'b1576'
p1495
ag978
ag1034
ag815
ag664
ag1307
ag795
ag59
ag698
ag1264
ag446
ag1385
ag905
ag281
ag838
ag1456
ag1166
ag751
ag603
ag1125
ag1446
ag1428
ag343
ag1175
ag1145
ag75
ag823
ag356
ag1374
ag234
ag1288
ag454
ag977
ag135
ag1023
ag1424
ag360
ag495
ag569
ag1089
aa(lp1496
g842
ag169
ag1165
ag283
aS'b1555'
p1497
ag544
ag874
ag180
ag20
ag1295
ag1331
ag1312
ag512
ag1113
ag1077
ag1270
ag489
ag324
ag190
ag962
ag1245
ag409
ag759
ag87
ag1291
ag1473
ag1380
ag877
ag1354
ag1045
ag1011
ag460
ag261
ag1206
ag77
ag757
ag185
ag1441
ag30
ag380
ag508
ag518
ag360
ag292
ag815
ag1374
ag374
ag465
ag433
ag898
ag1107
ag631
ag483
ag1133
ag221
ag1427
ag905
ag1321
ag1493
ag1355
ag844
ag395
ag132
ag124
ag865
ag72
ag201
ag546
ag320
ag515
ag532
ag954
ag1460
aS'b98'
p1498
ag1276
ag310
ag1051
ag633
ag165
ag779
ag971
ag1191
ag497
ag521
ag330
ag71
ag674
ag200
ag908
ag1240
ag289
ag186
ag63
ag1345
ag531
ag1024
ag356
ag1377
aS'b1049'
p1499
ag683
aa(lp1500
g523
ag432
ag703
ag1009
ag658
ag1260
ag199
ag1292
ag905
ag1289
ag453
ag258
ag156
ag689
ag137
ag79
ag197
ag515
ag1340
ag1356
ag1030
ag976
ag275
ag618
ag324
ag524
ag635
ag1275
ag1104
ag788
ag725
ag1054
ag894
ag31
ag1079
ag1155
ag712
ag298
ag230
ag849
ag721
ag513
ag320
ag54
ag94
ag1366
ag481
ag784
ag108
ag599
ag611
ag991
ag113
ag645
ag1355
ag1363
ag1110
ag153
ag84
ag804
ag430
ag518
ag428
ag1330
ag366
ag4
ag138
ag20
ag24
ag1302
ag1068
ag237
ag370
ag578
ag1042
ag440
ag289
ag600
ag973
ag80
ag104
ag627
ag245
ag962
ag800
ag1466
ag730
ag321
ag821
ag1145
ag1419
ag796
ag988
ag292
ag596
ag650
ag1062
ag1060
ag562
ag897
aa(lp1501
g1481
ag894
ag952
ag956
ag331
ag14
ag150
ag139
ag307
ag795
ag156
ag1058
ag659
ag425
ag1326
ag1097
ag123
ag931
ag296
ag703
ag1325
ag294
ag1490
ag697
ag940
ag868
ag315
ag1115
ag804
ag443
ag721
ag97
ag842
ag585
ag12
ag858
ag770
ag1427
ag962
ag1251
ag1172
aS'b702'
p1502
ag477
ag831
ag623
ag1049
ag479
ag414
ag711
ag876
ag1262
ag267
ag174
ag1149
ag1062
ag107
ag667
ag49
ag118
ag1406
ag397
ag262
ag524
ag564
ag314
ag207
ag1199
ag998
ag306
ag1204
ag472
ag166
ag1156
ag289
ag471
ag903
ag204
ag661
aS'b815'
p1503
ag920
ag1060
ag1233
ag869
ag203
ag163
ag731
ag602
ag558
ag861
ag278
ag1082
ag299
ag853
ag714
ag1105
ag10
ag135
ag269
ag1189
ag1446
aa(lp1504
g641
ag1395
ag306
ag175
ag919
ag1184
ag570
ag1020
ag693
ag1056
ag1029
ag566
ag785
ag1097
ag1481
ag1007
ag1076
ag633
ag278
ag775
ag1060
aS'b503'
p1505
ag504
ag187
ag893
ag37
ag88
ag133
ag1360
ag527
ag275
ag436
ag215
ag738
ag426
ag456
ag1309
ag1278
ag1393
ag100
ag1046
ag1396
ag748
ag1109
ag1461
ag1214
ag34
ag1003
ag1041
ag1080
ag65
ag1235
ag1271
ag402
ag422
aS'b464'
p1506
ag983
ag1189
ag226
ag1414
ag804
ag184
ag1342
ag1054
ag1236
ag400
ag1432
ag742
ag1210
ag216
ag562
ag1096
ag413
ag1093
ag1450
ag1067
ag982
ag276
ag1413
ag1441
ag695
ag717
ag1137
ag396
ag321
ag293
ag450
ag631
ag1122
ag1103
ag212
ag551
ag1016
ag41
ag318
ag242
ag1364
ag1299
ag941
ag877
aa(lp1507
g931
ag993
ag771
ag824
aS'b394'
p1508
ag530
ag1029
ag467
ag957
ag307
ag1333
ag997
ag94
ag979
ag423
ag445
ag1144
ag494
ag591
aS'b1182'
p1509
ag317
ag240
ag210
ag1003
ag803
ag825
ag1362
ag1208
ag990
ag895
ag506
ag612
ag1494
ag923
ag327
ag235
ag739
ag865
ag1148
ag257
ag889
ag630
ag534
ag846
ag179
ag916
ag1422
ag662
ag1130
ag795
ag1204
ag934
ag32
ag59
ag1133
ag985
ag109
ag844
ag1089
ag1190
ag887
ag14
ag773
ag568
ag1139
ag267
ag441
ag377
ag197
ag657
ag1382
ag324
ag1000
ag836
ag374
ag422
ag371
ag1171
ag361
ag882
ag722
ag1235
ag37
ag1044
ag911
ag975
ag946
ag420
ag1214
ag52
ag397
ag831
ag1032
ag1050
ag572
ag396
ag560
ag1391
ag786
ag1227
aa(lp1510
g565
ag538
ag238
ag721
ag1324
ag430
ag1020
ag850
ag66
ag1191
ag555
ag1097
ag1002
ag921
ag876
ag723
ag419
ag775
ag1003
ag210
ag294
ag500
ag310
ag688
ag175
ag413
ag511
ag1044
ag798
ag136
ag112
ag1016
ag382
ag844
ag687
ag1437
ag85
ag1177
ag101
ag1034
ag120
ag27
ag506
ag1121
ag755
ag1113
ag821
ag1011
ag1315
ag428
ag81
ag1197
ag268
ag417
ag619
ag1260
ag224
ag1404
ag911
ag82
ag1279
ag877
ag113
ag204
ag507
ag330
ag164
ag460
ag1037
ag1168
ag978
ag1485
ag410
ag87
ag1278
ag1415
ag1434
ag289
ag1172
ag749
ag557
ag724
ag589
ag986
ag1378
ag1362
ag1292
ag920
ag479
ag96
ag1018
ag904
ag1291
ag694
ag784
ag75
ag77
ag1409
ag3
ag1442
aa(lp1511
g416
ag1426
ag959
ag990
ag300
aS'b1525'
p1512
ag1494
ag32
ag37
ag530
ag609
ag789
ag1465
ag206
ag431
ag613
ag639
ag542
ag305
ag371
ag1020
ag1392
ag1380
ag921
ag988
ag475
ag335
ag831
ag893
ag1049
ag484
ag436
ag252
ag599
ag1361
ag35
ag16
ag655
ag276
ag1029
ag632
ag1082
ag1241
ag1146
ag1299
ag960
ag218
ag1177
ag301
ag538
ag27
ag465
ag370
ag1339
ag17
ag917
ag642
ag709
ag1390
ag521
ag677
ag815
ag865
ag1088
ag944
ag646
ag720
ag1418
ag964
aS'b390'
p1513
ag512
ag229
ag980
ag603
ag1075
ag822
ag471
ag1053
ag703
ag454
aS'b1436'
p1514
ag245
ag1310
ag661
ag1432
ag208
ag8
ag217
ag967
ag1238
ag1027
ag846
ag425
ag817
ag1006
ag689
ag1255
ag766
aS'b513'
p1515
ag138
aa(lp1516
g1166
ag1169
ag1148
ag60
ag977
ag669
ag1041
ag377
ag194
ag538
ag1322
ag799
ag1090
ag512
ag1068
ag132
ag1350
ag1317
ag933
ag502
ag834
ag1057
ag1037
ag1331
ag278
ag355
ag255
ag574
aS'b846'
p1517
ag679
ag38
ag1390
ag1053
ag675
ag214
ag758
ag1117
ag1391
ag1055
ag693
ag972
ag1241
ag838
ag802
ag1192
ag1276
ag418
ag1099
ag600
ag360
ag737
ag998
ag289
ag440
ag78
ag56
ag733
ag1376
ag598
ag72
ag501
ag1049
ag453
ag1056
ag641
ag1321
ag1290
ag305
ag1467
ag14
ag1006
aS'b1696'
p1518
ag1022
ag124
ag949
ag768
ag1506
aS'b209'
p1519
ag722
ag458
ag195
ag101
ag460
ag1408
ag48
ag424
ag406
ag499
ag1013
ag727
ag1450
ag240
ag810
ag385
ag521
ag1046
ag859
ag1000
ag1174
ag177
aa(lp1520
g547
ag856
ag554
ag688
ag236
ag105
ag1436
ag1061
ag878
ag887
ag667
ag1014
ag1086
ag1517
ag494
ag506
ag1418
ag1236
ag477
ag103
ag1271
ag876
ag1033
ag215
ag908
ag208
ag1278
ag1299
ag1036
ag204
ag769
ag707
ag689
ag1300
ag327
ag1070
ag1393
ag1316
ag1457
ag1284
ag1366
ag322
ag629
ag1312
ag218
ag101
ag853
ag975
ag1363
ag40
aS'b250'
p1521
ag461
ag3
ag32
ag1343
ag1042
ag771
ag972
ag1437
ag169
ag478
ag713
ag1293
ag801
ag108
ag675
ag1410
ag1176
ag741
ag1038
ag1135
ag261
ag1281
ag798
ag810
ag583
ag409
ag1230
ag187
ag65
ag138
ag1261
ag518
ag144
ag1090
ag38
ag1245
ag621
ag1388
ag623
ag406
ag1072
ag540
ag475
ag487
ag983
ag1030
ag652
ag740
ag1455
aa(lp1522
g6
ag507
ag493
ag405
ag177
ag874
ag172
ag1223
ag359
ag963
aS'b255'
p1523
ag1324
ag1461
ag555
ag465
ag406
ag325
ag1521
ag770
ag747
ag1376
ag281
ag195
ag791
ag1411
ag1119
ag1484
ag662
ag1366
ag1124
ag423
ag711
ag1207
ag719
ag735
ag930
ag918
ag419
ag599
ag1184
ag1373
ag1518
ag85
ag294
ag485
ag1125
ag852
ag481
ag272
ag1146
ag1300
ag1240
ag1310
ag813
ag308
ag824
ag1451
ag914
ag976
ag20
ag369
ag743
ag965
ag112
ag1139
ag1463
ag161
ag1299
ag103
ag1305
ag1140
ag1012
ag660
ag298
ag794
ag738
ag1416
ag533
ag656
ag431
ag762
ag952
ag43
aS'b1116'
p1524
ag1423
ag784
ag1192
ag789
ag853
ag1024
ag224
ag1194
ag211
ag651
ag1467
ag612
ag33
ag258
ag847
ag947
aa(lp1525
g838
ag1279
ag585
ag1108
ag152
ag569
ag642
ag968
ag895
ag1409
ag917
ag1051
ag1489
ag70
ag1087
ag209
ag381
ag1519
ag282
ag1272
ag847
ag548
ag947
ag354
ag815
ag1508
ag909
ag131
ag1016
ag1194
ag907
ag322
ag63
ag363
ag794
ag1199
ag172
ag351
ag789
ag1442
ag603
ag669
ag1076
ag410
ag217
ag339
ag911
ag498
ag1410
aS'b1311'
p1526
ag1335
ag921
ag736
ag373
ag609
ag1252
ag1205
ag854
ag943
ag382
ag264
ag441
ag416
ag770
ag812
ag897
ag1119
ag442
ag1141
ag711
ag411
ag313
ag893
ag807
ag1041
ag974
ag667
ag51
ag251
ag1034
ag1445
ag1315
ag1240
ag307
ag104
ag1193
ag240
ag1063
ag90
ag404
ag993
ag702
ag1446
ag933
ag589
ag1470
ag655
ag864
ag796
ag458
aa(lp1527
g505
aS'b1195'
p1528
ag565
ag270
ag1173
ag1264
ag89
ag1191
ag1306
ag659
ag1194
ag171
ag156
ag867
ag133
ag853
ag43
ag731
ag168
ag417
ag394
ag1086
ag1140
ag1470
ag546
ag294
aS'b571'
p1529
ag619
ag15
ag661
ag891
ag147
ag311
ag416
ag850
ag450
ag1477
ag1053
ag1512
ag564
ag648
ag1146
ag69
ag812
ag136
ag679
ag349
ag1426
ag1114
ag890
ag336
ag748
ag828
ag1125
ag1064
ag365
ag606
ag671
ag689
ag106
aS'b922'
p1530
ag519
ag408
ag430
ag1019
ag733
ag1090
ag1231
ag691
ag1333
ag235
ag917
ag1037
ag124
ag1374
ag762
ag186
ag1018
ag1135
ag845
ag444
ag354
ag935
ag1275
ag30
ag78
ag688
ag884
ag1457
ag1095
ag275
ag768
ag318
ag963
ag1351
ag1068
ag729
ag549
ag123
ag1261
aa(lp1531
g1241
ag932
ag1523
ag1108
ag618
ag562
ag1274
ag167
ag550
ag786
ag264
ag1327
ag361
ag682
ag1331
ag36
ag453
ag181
ag118
ag975
ag261
ag1408
ag529
ag190
ag709
ag558
ag1261
ag1165
ag849
ag1145
ag405
ag315
ag1313
ag842
ag816
ag735
ag24
ag1055
ag736
ag724
ag1209
ag520
ag1258
ag844
ag469
ag973
ag1046
ag771
ag577
ag213
ag192
ag930
ag288
ag183
ag1259
ag1311
ag661
ag1059
ag336
ag372
ag942
ag129
ag965
ag493
ag122
ag438
ag833
ag1461
ag509
ag45
ag638
ag836
ag61
ag258
ag1437
ag1206
ag757
ag1014
ag1390
ag15
ag1472
ag207
ag634
ag174
ag71
ag1035
ag1174
ag1361
ag1371
ag1134
ag641
ag185
ag549
ag824
ag229
ag722
ag1344
ag1168
ag538
ag530
aa(lp1532
g971
ag392
ag286
ag788
ag1372
ag694
ag826
ag736
ag13
ag817
ag1108
ag470
ag670
ag280
ag1232
ag94
ag134
ag488
ag136
ag1380
ag653
ag1021
ag801
ag941
ag718
ag171
ag1481
ag1317
ag144
ag1022
ag45
ag1216
ag125
ag1197
ag1328
ag93
ag257
ag148
ag1039
ag1140
ag1397
ag267
ag834
aS'b525'
p1533
ag1226
ag1044
ag1077
ag413
ag546
ag483
ag562
ag669
ag44
ag569
ag1093
ag948
ag1514
ag132
ag1399
ag967
ag513
ag232
ag394
ag194
ag540
ag440
ag870
ag111
aS'b1603'
p1534
ag748
ag106
ag839
ag1249
ag785
ag621
ag1460
ag135
ag983
ag116
ag865
ag997
ag1245
ag530
ag149
ag1024
ag191
ag302
ag1030
ag71
ag1392
ag1257
ag103
ag679
ag355
ag954
ag1266
ag145
ag1449
ag732
ag385
aa(lp1535
g1473
ag947
ag1044
ag1096
ag1499
ag1341
ag785
ag791
ag1242
ag849
ag1523
ag837
ag49
ag253
ag477
ag1495
ag67
ag240
ag377
ag727
ag625
ag864
ag1251
ag815
ag532
ag92
ag413
ag1478
ag329
ag1506
ag516
ag398
ag733
ag528
ag880
ag347
ag1099
ag331
ag449
ag779
ag1260
ag1445
ag762
ag362
ag636
ag436
ag883
ag1521
ag1176
ag360
ag1485
ag258
ag872
ag182
ag541
ag547
ag366
ag1295
ag392
ag904
ag813
ag155
ag823
ag686
ag866
ag1097
ag1018
ag592
ag144
ag1238
ag1104
ag912
ag88
ag781
ag679
ag652
ag1070
ag44
ag752
ag694
ag1192
ag5
ag1163
ag1078
ag1193
ag1266
ag345
ag1391
ag606
ag816
ag1059
ag202
ag937
ag1414
ag963
ag1434
ag504
ag1227
ag440
ag797
aa(lp1536
g1421
ag352
ag732
ag1145
ag1466
ag389
ag365
ag703
ag252
ag537
ag157
ag464
ag1053
ag338
ag1508
ag356
ag604
ag1408
ag133
ag47
ag18
ag1007
ag1283
ag449
ag1077
ag1162
ag151
ag417
ag672
aS'b851'
p1537
ag600
ag777
ag1270
ag1004
ag804
ag1471
ag404
ag1427
ag155
ag1453
ag1079
ag863
ag1313
ag24
ag547
ag249
ag628
ag185
ag1357
ag912
ag681
ag931
ag641
ag549
ag1223
ag1052
ag922
ag343
ag792
ag246
ag902
ag790
ag1338
ag1349
ag916
ag473
ag339
ag369
ag829
ag276
ag1403
ag460
ag802
ag143
ag529
ag889
ag793
ag272
ag608
ag615
ag409
ag1261
ag908
ag1290
ag1209
ag913
ag325
ag419
ag1301
ag818
ag1127
ag873
ag997
ag390
ag485
ag1262
ag504
ag1364
ag429
ag1350
aa(lp1538
g565
ag512
ag1170
ag499
ag796
ag517
ag106
ag692
ag214
ag1415
ag602
ag1455
ag880
ag1179
ag1484
ag571
ag160
ag1385
ag656
ag758
ag241
ag334
ag879
ag604
ag1521
ag1125
ag1529
ag1437
ag828
ag1432
ag1463
ag1253
ag769
ag95
ag519
ag920
ag400
ag906
ag124
ag520
ag1422
ag1202
ag1493
ag911
ag567
ag1523
ag424
ag34
ag641
ag42
ag1155
ag67
ag890
ag754
ag53
ag40
ag718
ag715
ag1036
ag1327
ag1345
ag223
ag166
ag1214
ag1460
ag82
ag708
ag591
ag974
ag47
ag747
ag1296
ag553
ag556
ag1028
ag1291
ag48
ag1024
ag916
ag1144
ag1444
ag1059
ag1271
ag740
ag1178
ag752
ag1469
ag1502
ag340
ag676
ag1295
ag1517
ag174
ag1208
ag86
ag1013
ag1224
ag896
ag1101
ag360
aa(lp1539
g15
ag779
ag1384
ag195
ag1220
ag505
ag1204
ag1206
ag599
ag600
ag990
ag774
ag1494
ag716
ag1340
ag762
ag747
ag828
ag438
ag81
ag1334
ag375
ag857
ag1143
ag1144
ag301
ag1533
ag878
ag1163
ag1251
ag268
ag1331
ag735
ag1054
ag80
ag869
ag523
ag763
ag1181
ag806
ag197
ag231
ag281
ag384
ag1321
ag112
ag782
ag818
ag981
ag1260
ag30
ag1203
aS'b1277'
p1540
ag1074
ag366
ag597
ag488
ag12
ag134
ag808
ag1322
ag554
ag351
ag303
ag725
ag480
ag475
ag643
ag358
ag1196
ag120
ag1183
ag719
ag471
ag78
ag909
ag1477
ag955
ag328
ag1176
ag1078
ag450
ag1112
ag1353
ag289
ag1354
ag163
ag803
ag932
ag1110
ag108
ag576
ag865
ag276
ag1273
ag69
ag242
ag248
ag1529
ag1121
aa(lp1541
g637
ag74
ag461
ag1380
ag255
ag1235
ag361
ag1473
ag583
ag1273
ag490
ag290
ag1414
ag858
ag548
ag945
ag918
ag988
ag573
ag676
ag14
ag525
ag1321
ag730
ag930
ag546
ag455
ag53
ag681
ag474
ag40
ag1028
ag881
ag914
ag760
ag547
ag794
ag1092
ag142
ag1062
ag1105
ag1299
ag551
ag47
ag320
ag1404
ag266
ag1351
ag1433
ag1018
ag1231
ag31
ag684
ag1279
ag153
ag885
ag845
ag91
ag1357
ag765
ag259
ag509
ag250
ag109
ag397
ag829
ag1439
ag1315
ag960
ag1412
ag427
ag688
ag668
ag115
ag1179
ag1205
ag1140
ag1068
ag907
ag113
ag352
ag76
ag447
ag329
ag695
ag568
ag191
ag122
ag49
ag1409
ag769
ag1090
ag209
ag1455
ag768
ag963
ag895
ag92
ag170
ag774
aa(lp1542
g120
ag920
ag384
ag604
ag236
ag667
ag766
ag159
ag1285
ag1364
ag149
ag1373
ag960
ag1414
ag1284
ag1042
ag1487
ag1376
ag1390
ag81
ag901
ag11
ag584
ag834
ag42
ag1140
ag458
ag1045
ag1467
ag539
ag1503
ag646
ag291
ag135
ag1070
ag237
ag824
ag1229
ag1415
ag942
ag974
ag22
ag1502
ag1034
ag126
ag917
ag447
ag133
ag1395
ag999
ag41
ag664
ag527
ag277
ag316
ag843
ag1306
ag1272
ag1113
ag371
ag433
ag372
ag1038
ag174
ag1031
ag1025
ag1179
ag549
ag577
ag1192
ag560
ag44
ag363
ag413
ag480
ag713
ag1449
ag636
ag1223
ag698
ag823
ag233
ag972
ag155
ag282
ag1145
ag1405
ag9
ag292
ag117
ag983
ag1514
ag567
ag554
ag634
ag587
ag1221
ag1015
ag482
ag860
aa(lp1543
g1388
ag863
ag974
ag604
ag607
ag515
ag900
ag1156
ag1242
ag34
ag1379
ag710
ag341
ag859
ag31
ag1094
ag1088
ag1199
ag1392
ag1158
ag1108
ag1232
ag713
ag1216
ag451
ag353
ag704
ag907
ag1003
ag597
ag836
ag940
ag258
ag1172
ag769
ag608
ag425
ag740
ag1007
ag1025
ag251
ag1377
ag798
ag1233
ag118
ag263
ag261
ag391
ag470
ag501
ag676
ag1116
ag1315
ag776
ag906
ag1518
ag1514
ag1533
ag693
ag536
ag894
ag552
ag923
ag1075
ag639
ag252
ag1295
ag321
ag150
ag216
ag799
ag1410
ag1422
ag1397
ag336
ag148
ag1095
ag1047
ag469
ag1314
ag134
ag991
ag13
ag382
ag467
ag789
ag565
ag72
ag1015
ag126
ag975
ag209
ag958
ag260
ag534
ag1450
ag1054
ag100
ag1006
ag329
aa(lp1544
g811
ag671
ag538
ag1187
ag1322
ag878
ag1264
ag259
ag1356
ag948
ag621
ag7
ag544
ag718
ag1149
ag25
ag1307
ag946
ag140
ag292
ag524
ag869
ag1376
ag854
ag366
ag1484
ag631
ag1428
ag702
ag222
ag1075
ag1260
ag134
ag353
ag13
ag843
ag364
ag571
ag877
ag710
ag225
ag680
ag1508
ag816
ag797
ag256
ag495
ag327
ag953
ag1061
ag639
ag923
ag579
ag54
ag320
ag730
ag670
ag1256
ag121
ag1281
ag1014
ag1029
ag406
ag470
ag1079
ag834
ag928
ag757
ag697
ag1494
ag865
ag859
ag1310
ag1212
ag254
ag29
ag1266
ag503
ag263
ag592
ag731
ag1299
ag82
ag1471
ag1038
ag1330
ag211
ag251
ag33
ag35
ag643
ag652
ag1000
ag1470
ag532
ag769
ag442
ag822
ag344
ag793
aa(lp1545
g469
ag385
ag122
ag891
ag104
ag265
ag77
ag158
ag760
ag1167
ag20
ag1140
ag562
ag388
ag807
ag268
ag560
ag654
ag58
ag271
ag762
ag720
ag367
ag1258
ag586
ag187
ag320
ag439
ag744
ag261
ag1038
ag1228
ag1232
ag407
aS'b203'
p1546
ag572
ag722
ag698
ag471
ag1174
ag766
ag282
ag87
ag203
ag143
ag248
ag743
ag896
ag1200
ag585
ag688
ag406
ag755
ag308
ag1318
ag344
ag895
ag913
ag1263
ag843
ag1408
ag592
ag1322
ag1396
ag1013
ag1227
ag1378
ag716
ag717
ag226
ag626
ag836
ag875
ag450
ag237
ag627
ag1361
ag1117
ag637
ag902
ag325
ag589
ag996
ag238
ag835
ag374
ag1436
ag1392
ag1139
ag1357
ag742
ag106
ag919
ag579
ag602
ag1425
ag677
ag267
ag351
ag1014
aa(lp1547
g215
ag261
ag72
ag1317
ag359
ag378
ag917
ag158
ag441
ag1512
ag14
ag532
ag268
ag952
ag922
ag978
ag375
ag1540
ag461
ag228
ag454
ag894
ag334
ag409
ag436
ag1306
ag777
ag145
ag510
ag247
ag1220
ag1091
ag148
ag508
ag1087
ag1137
ag635
ag1244
ag529
ag328
ag596
ag531
ag604
ag414
ag936
ag1339
ag304
ag152
ag965
ag968
ag1268
ag1323
ag673
ag1026
ag610
ag511
ag299
ag1474
ag1436
ag27
ag1356
ag415
ag616
ag634
ag627
ag841
ag857
ag509
ag402
ag1498
ag188
ag931
ag341
ag239
ag502
ag112
ag1318
ag281
ag327
aS'b1060'
p1548
ag1068
ag216
ag666
ag901
ag1099
aS'b729'
p1549
ag1319
ag263
ag849
ag1233
ag1090
ag585
ag1070
ag796
ag629
ag111
ag932
ag657
ag1471
ag1029
aa(lp1550
g26
ag716
ag1266
ag1213
ag627
ag5
ag1291
ag923
ag1509
ag753
ag233
ag1236
ag1272
ag728
ag1249
ag564
ag1229
ag909
ag1317
ag1302
ag1174
ag1377
ag1376
ag37
ag153
ag502
ag1052
ag1058
ag1163
ag1216
ag1013
ag1053
ag344
ag1021
ag839
ag1279
ag866
ag361
ag1443
ag525
ag783
ag1436
ag379
ag1240
ag393
ag457
ag1065
ag977
ag545
ag447
ag1194
ag829
ag990
ag159
ag732
ag485
ag806
ag974
ag149
ag6
ag70
ag428
ag230
ag939
ag887
ag509
ag72
ag2
ag1226
ag1127
ag146
ag842
ag212
ag68
ag531
ag1446
ag802
ag742
ag483
ag1476
ag416
ag364
ag722
ag804
ag345
ag751
ag976
ag1083
ag776
ag452
ag17
ag1390
ag1414
ag1047
ag1199
ag1466
ag430
ag355
ag514
ag1170
aa(lp1551
g243
ag740
ag322
ag433
ag774
ag426
ag1391
ag678
ag375
ag619
ag321
ag264
ag1260
ag717
ag1476
ag370
ag727
ag1160
ag177
ag690
ag677
ag988
ag91
ag838
ag1212
ag568
ag475
ag1139
ag549
ag388
ag784
ag818
ag414
ag1191
ag1077
ag480
ag169
ag597
ag309
ag524
ag645
ag231
ag283
ag1333
ag495
ag1284
ag1268
ag1034
ag882
ag954
ag760
ag655
ag146
ag441
ag276
ag669
ag1422
ag538
ag1382
ag863
ag707
ag781
ag751
ag82
ag308
ag235
ag543
ag393
ag587
ag919
ag72
ag100
ag115
ag22
ag1143
ag1157
ag286
ag26
ag1109
ag615
ag1343
ag1080
ag193
ag965
ag737
ag24
ag963
ag632
ag424
ag1521
ag635
ag547
ag1442
ag1042
ag1329
ag345
ag582
ag181
ag1261
ag943
aa(lp1552
g694
ag1298
ag482
ag1094
ag782
ag825
ag443
ag706
ag32
ag265
ag1267
ag68
ag158
ag419
ag1213
ag1087
ag297
ag7
ag166
ag1212
ag339
ag485
ag135
ag847
ag309
ag104
ag769
ag766
ag1253
ag1227
ag55
ag714
ag1384
ag292
ag1045
ag575
ag1415
ag742
ag704
ag109
ag1526
ag133
ag207
ag72
ag61
ag49
ag773
ag628
ag689
ag100
ag912
ag364
ag720
ag893
ag1090
ag603
ag795
ag843
ag859
ag1352
ag1347
ag838
ag93
ag1074
ag1081
ag192
ag15
ag1142
ag887
ag193
ag132
ag254
ag688
ag583
ag341
ag1481
ag160
ag260
ag1377
ag1314
ag856
ag1111
ag1258
ag680
ag278
ag1187
ag982
ag1327
ag356
ag421
ag1380
ag878
ag683
ag1453
ag535
ag56
ag1275
ag864
ag403
ag750
aa(lp1553
g726
ag929
ag1352
ag720
ag456
ag1298
ag990
ag1312
ag918
ag343
ag1255
ag1342
ag453
ag57
ag1323
ag101
ag193
ag1424
ag194
ag1172
ag1151
ag44
ag1521
ag792
ag967
ag1347
ag279
ag55
ag110
ag3
ag799
ag1477
ag839
ag233
ag423
ag685
ag94
ag660
ag1406
ag261
ag734
ag10
ag1305
ag830
ag597
ag604
ag1405
ag1472
ag505
ag139
ag847
ag377
ag645
ag684
ag381
ag813
ag1102
ag1508
ag1240
ag923
ag404
ag359
ag1282
ag963
ag81
ag283
ag334
ag399
ag344
ag215
ag144
ag1029
ag56
ag27
ag589
ag504
ag863
ag325
ag611
ag1476
ag210
ag364
ag1275
ag626
ag787
ag1103
ag338
ag519
ag464
ag1104
ag337
ag1188
ag183
ag980
ag108
ag730
ag274
ag630
ag1478
ag152
aa(lp1554
g424
ag1249
ag1057
ag788
ag848
ag170
ag1022
ag469
ag1456
ag13
ag1009
ag1414
ag426
ag791
ag1305
ag108
ag325
ag1068
ag115
ag1270
ag1277
ag644
ag589
ag702
ag1512
ag328
ag952
ag751
ag503
ag548
ag1267
ag218
ag45
ag629
ag986
ag1197
ag495
ag1177
ag463
ag366
ag173
ag551
ag312
ag392
ag606
ag169
ag814
ag1011
ag491
ag449
ag1256
ag1222
ag930
ag24
ag1534
ag874
ag1203
ag782
ag988
ag50
ag1207
ag192
ag1227
aS'b1742'
p1555
ag429
ag240
ag1257
ag32
ag1135
ag1427
ag1065
ag1498
ag1425
ag1389
ag69
ag1367
ag1441
ag1047
ag96
ag1429
ag738
ag493
ag744
ag835
ag1049
ag525
ag156
ag464
ag686
ag242
ag1417
ag1306
ag185
ag1243
ag631
ag1087
ag506
ag1278
ag1109
ag1509
aa(lp1556
g610
ag346
ag906
ag290
ag621
ag729
ag69
ag1178
ag1296
ag104
ag249
ag1306
ag1166
ag1010
ag841
ag898
ag1243
ag616
ag228
ag1218
ag956
ag464
ag685
ag1324
ag1009
ag520
ag1106
ag505
ag1153
ag321
ag1203
ag668
ag114
ag1328
ag438
ag148
ag117
ag62
ag313
ag708
ag294
ag460
ag1139
ag356
ag1212
ag1023
ag984
ag1472
ag578
ag1530
ag742
ag1109
ag383
ag663
ag884
ag1176
ag831
ag181
ag750
ag825
ag1103
ag587
ag940
ag855
ag272
ag1302
ag1159
ag1287
ag871
ag1242
ag948
ag170
ag580
ag1234
ag666
ag960
ag969
ag1276
ag566
ag291
ag1431
ag316
ag1474
ag917
ag70
ag660
ag391
ag576
ag54
ag1479
ag251
ag1506
ag502
ag952
ag828
ag182
ag1191
ag214
ag705
ag61
aa(lp1557
g451
ag437
ag1137
ag1343
ag1286
ag521
ag1401
ag1319
ag1093
ag157
ag1317
ag1336
ag330
ag1434
ag1483
ag167
ag1503
ag1208
ag44
ag405
ag353
ag7
ag383
ag541
ag837
ag589
ag331
ag332
ag1491
ag1204
ag1393
ag1414
ag833
ag343
ag814
ag902
ag1000
ag846
ag1518
ag37
ag28
ag196
ag98
ag598
ag1080
ag1349
ag1383
ag578
ag605
ag1169
ag42
ag613
ag288
ag660
ag637
ag1167
ag381
ag687
ag899
ag654
ag301
ag1472
ag159
ag935
ag160
ag38
ag502
ag1185
ag562
ag290
ag321
ag500
ag1284
ag645
ag544
ag1428
ag1322
ag302
ag1424
ag515
ag172
ag1209
ag1372
ag820
ag96
ag940
ag653
ag509
ag510
ag945
ag1197
ag1019
ag305
ag132
ag1416
ag416
ag649
ag1018
ag1394
ag754
aa(lp1558
g1411
ag804
ag889
ag664
ag63
ag456
ag1463
ag158
ag874
ag628
ag1087
ag849
ag922
ag814
ag381
ag796
ag340
ag224
ag1057
ag1278
ag559
ag1173
ag930
ag76
ag450
ag1526
ag1140
ag338
ag694
ag1072
ag347
ag1548
ag1099
ag882
ag659
ag772
ag1327
ag257
ag602
ag268
ag553
ag18
ag877
ag1528
ag451
ag544
ag481
ag627
ag1199
ag621
ag536
ag961
ag188
ag413
ag154
ag69
ag469
ag998
ag384
ag934
ag1456
ag1108
ag105
ag1048
ag900
ag1138
ag70
ag1269
ag918
ag1162
ag280
ag615
ag1512
ag733
ag1024
ag111
ag1423
ag186
ag606
ag958
ag178
ag234
ag853
ag1374
ag1341
ag121
ag722
ag1189
ag710
ag1019
ag836
ag530
ag459
ag316
ag916
ag1396
ag1143
ag774
ag33
ag1448
aa(lp1559
g313
ag1442
ag1083
ag1229
ag1336
ag1271
ag200
ag377
ag400
ag678
ag34
ag415
ag1158
ag956
ag308
ag358
ag39
ag60
ag1495
ag549
ag84
ag536
ag103
ag1097
ag746
ag1367
ag447
ag382
ag16
ag1533
ag563
ag328
ag1171
ag242
ag1301
ag1167
ag683
ag258
ag1419
ag577
ag1391
ag1303
ag535
ag311
ag50
ag692
ag800
ag1251
ag1223
ag394
ag1441
ag1355
ag684
ag429
ag309
ag341
ag1555
ag142
ag538
ag1457
ag1036
ag1290
ag542
ag985
ag702
ag155
ag261
ag1416
ag1523
ag1489
ag1183
ag1124
ag244
ag896
ag842
ag347
ag944
ag495
ag611
ag208
ag652
ag866
ag754
ag760
ag1062
ag72
ag1120
ag122
ag882
ag1252
ag1508
ag445
ag224
ag634
ag1425
ag1117
ag1473
ag774
ag246
ag703
aa(lp1560
g803
ag1125
ag675
ag987
ag1514
ag1058
ag693
ag689
ag647
ag161
ag650
ag1239
ag817
ag426
ag1350
ag309
ag1318
ag971
ag709
ag926
ag334
ag1423
ag153
ag293
ag503
ag482
ag643
ag89
ag1158
ag949
ag440
ag842
ag1465
ag324
ag1352
ag1018
ag884
ag1184
ag1108
ag1412
ag1154
ag323
ag441
ag1450
ag891
ag1120
ag1023
ag1383
ag1021
ag47
ag1410
ag443
ag184
ag460
ag1248
ag1240
ag4
ag1319
ag1264
ag1325
ag612
ag311
ag364
ag402
ag152
ag588
ag1479
ag1361
ag659
ag1463
ag1231
ag743
ag790
ag1315
ag626
ag78
ag1388
ag1422
ag678
ag419
ag769
ag68
ag114
ag726
ag190
ag913
ag1267
ag1392
ag144
ag961
ag1487
ag1115
ag576
ag1378
ag1085
ag560
ag903
ag1100
ag587
ag211
aa(lp1561
g92
ag1049
ag807
ag268
ag3
ag938
ag1021
ag411
ag606
ag806
ag799
ag465
ag1101
ag1034
ag822
ag6
ag795
ag342
ag815
ag943
ag482
ag962
ag500
ag1344
ag1045
ag346
ag1301
ag436
ag517
ag548
ag654
ag1368
ag1077
ag1200
ag674
ag1387
ag137
ag1465
ag666
ag96
ag66
ag1287
ag577
ag1173
ag1413
ag151
ag916
ag743
ag689
ag684
ag930
ag1020
ag1112
ag47
ag558
ag571
ag170
ag227
ag819
ag385
ag1340
ag1071
ag1160
ag832
ag232
ag1066
ag1470
ag28
ag269
ag1205
ag1086
ag1277
ag731
ag356
ag499
ag1073
ag428
ag1159
ag59
ag1339
ag1275
ag1129
ag1403
ag1335
ag755
ag1018
ag586
ag1349
ag1110
ag913
ag1119
ag1474
ag168
ag940
ag950
ag1255
ag101
ag991
ag491
ag838
aa(lp1562
g1350
ag644
ag1059
ag743
ag1555
ag399
ag344
ag858
ag178
ag1313
ag477
ag270
ag312
ag1318
ag1374
ag171
ag715
ag1529
ag1145
ag1023
ag657
ag136
ag288
ag359
ag656
ag572
ag1355
ag608
ag1208
ag1413
ag588
ag639
ag1487
ag1457
ag557
ag489
ag1031
ag1296
ag231
ag88
ag245
ag357
ag44
ag1478
ag767
ag1385
ag525
ag520
ag163
ag1094
ag120
ag549
ag287
ag1222
ag609
ag1045
ag430
ag553
ag3
ag170
ag1133
ag752
ag563
ag139
ag1352
ag1271
ag411
ag946
ag1519
ag967
ag862
ag1171
ag1259
ag1030
ag37
ag662
ag680
ag903
ag330
ag438
ag116
ag1508
ag1022
ag179
ag1101
ag148
ag440
ag853
ag461
ag1088
ag1214
ag1185
ag1339
ag1305
ag650
ag804
ag1359
ag709
ag1121
ag236
aa(lp1563
g211
ag1099
ag924
ag1353
ag1116
ag703
ag37
ag1278
ag423
ag713
ag541
ag1087
ag1351
ag675
ag199
ag995
ag867
ag179
ag1008
ag902
ag7
ag898
ag1279
ag1282
ag1399
ag1364
ag917
ag1412
ag973
ag1269
ag1194
ag861
ag1232
ag1154
ag419
ag1170
ag143
ag1517
ag676
ag6
ag315
ag1039
ag180
ag453
ag1369
ag80
ag1260
ag346
ag136
ag71
ag835
ag1255
ag986
ag367
ag20
ag646
ag763
ag728
ag282
ag268
ag1427
ag1100
ag678
ag1134
ag450
ag1513
ag111
ag1086
ag1281
ag255
ag1373
ag1108
ag941
ag326
ag194
ag1357
ag1126
ag823
ag1085
ag1159
ag354
ag1176
ag19
ag882
ag820
ag225
ag629
ag615
ag121
ag683
ag468
ag1118
ag620
ag742
ag480
ag667
ag518
ag193
ag444
ag1218
aa(lp1564
g1449
ag71
ag812
ag734
ag43
ag776
ag1393
ag1533
ag1335
ag1530
ag541
ag1238
ag722
ag835
ag1390
ag129
ag50
ag430
ag237
ag1221
ag244
ag836
ag52
ag1158
ag823
ag976
ag837
ag1095
ag1062
ag1247
ag728
ag832
ag298
ag66
ag558
ag434
ag1074
ag1028
ag366
ag1333
ag1385
ag1484
ag828
ag1037
ag570
ag1509
ag399
ag355
ag884
ag948
ag1160
ag506
ag692
ag217
ag703
ag118
ag497
ag643
ag479
ag13
ag1528
ag26
ag284
ag23
ag406
ag1443
ag138
ag369
ag1149
ag364
ag19
ag162
ag1268
ag743
ag1284
ag1487
ag999
ag1555
ag117
ag80
ag286
ag794
ag238
ag1007
ag297
ag1229
ag903
ag920
ag755
ag338
ag408
ag1328
ag838
ag1274
ag425
ag752
ag669
ag890
ag384
ag857
aa(lp1565
g1139
ag346
ag246
ag219
ag1293
ag1289
ag1130
ag628
ag38
ag1200
ag1239
ag1537
ag890
ag1268
ag471
ag585
ag806
ag1152
ag266
ag1135
ag1194
ag245
ag604
ag8
ag1132
ag1315
ag1195
ag181
ag844
ag167
ag534
ag26
ag122
ag163
ag5
ag1103
ag330
ag1353
ag1436
ag537
ag1073
ag715
ag1321
ag27
ag963
ag835
ag772
ag902
ag314
ag1230
ag261
ag75
ag348
ag480
ag1209
ag1359
ag370
ag726
ag1202
ag179
ag654
ag813
ag502
ag1125
ag826
ag1143
ag1301
ag404
ag34
ag1259
ag594
ag452
ag191
ag798
ag789
ag1506
ag1244
ag1165
ag66
ag223
ag918
ag1362
ag1039
ag104
ag1038
ag322
ag1219
ag1015
ag39
ag1246
ag228
ag1087
ag405
ag1214
ag1485
ag1222
ag1128
ag242
ag468
ag814
aa(lp1566
g134
ag408
ag1515
ag1318
ag613
ag962
ag672
ag710
ag993
ag749
ag86
ag659
ag1150
ag71
ag743
ag1214
ag404
ag1300
ag1373
ag1337
ag568
ag123
ag752
ag420
ag151
ag145
ag586
ag329
ag700
ag363
ag641
ag983
ag658
ag728
ag681
ag551
ag369
ag377
ag155
ag367
ag156
ag582
ag135
ag820
ag29
ag570
ag251
ag634
ag1019
ag762
ag608
ag217
ag795
ag1331
ag146
ag254
ag1037
ag1055
ag713
ag1428
ag1014
ag704
ag1415
ag1013
ag104
ag416
ag798
ag1231
ag1211
ag1117
ag1032
ag1283
ag245
ag1285
ag214
ag230
ag1242
ag1266
ag1244
ag1378
ag1115
ag1102
ag17
ag1195
ag403
ag693
ag304
ag880
ag992
ag760
ag434
ag406
ag432
ag1345
ag282
ag35
ag1460
ag32
ag275
ag721
aa(lp1567
g266
ag936
ag634
ag1163
ag212
ag886
ag759
ag1042
ag674
ag680
ag81
ag1281
ag1378
ag885
ag1123
ag1275
ag68
ag267
ag93
ag1292
ag1181
ag812
ag468
ag824
ag1411
ag790
ag1291
ag566
ag724
ag71
ag815
ag613
ag1385
ag1283
ag804
ag1247
ag800
ag690
ag213
ag1093
ag1372
ag1060
ag1239
ag462
ag810
ag1207
ag605
ag660
ag277
ag705
ag1422
ag1233
ag715
ag628
ag741
ag150
ag194
ag464
ag475
ag1063
ag1294
ag684
ag511
ag1240
ag802
ag935
ag1263
ag177
ag333
ag104
ag388
ag1396
ag1321
ag1419
ag593
ag611
ag361
ag1437
ag999
ag939
ag867
ag700
ag262
ag406
ag1429
ag596
ag1345
ag527
ag238
ag432
ag1483
ag328
ag1119
ag1555
ag257
ag316
ag1037
ag1099
ag103
ag145
aa(lp1568
g1298
ag817
ag1443
ag54
ag502
ag1231
ag809
ag515
ag208
ag5
ag8
ag1128
ag1455
ag890
ag386
ag279
ag1116
ag1162
ag65
ag323
ag1185
ag1534
ag148
ag1144
ag781
ag104
ag1278
ag954
ag152
ag496
ag462
ag105
ag1345
ag1502
ag1194
ag1409
ag1036
ag1232
ag588
ag169
ag844
ag142
ag40
ag133
ag833
ag680
ag756
ag734
ag1295
ag31
ag477
ag457
ag385
ag656
ag1523
ag685
ag1362
ag242
ag7
ag1028
ag616
ag564
ag265
ag715
ag438
ag1240
ag908
ag664
ag470
ag1305
ag926
ag387
ag780
ag1114
ag1016
ag573
ag1469
ag1368
ag615
ag1010
ag1132
ag106
ag1555
ag1050
ag1105
ag1506
ag22
ag994
ag221
ag122
ag1143
ag331
ag714
ag363
ag415
ag1323
ag965
ag1361
ag1267
ag1091
aa(lp1569
g1359
ag315
ag179
ag1047
ag120
ag1444
ag1104
ag1387
ag585
ag1272
ag153
ag713
ag1236
ag1233
ag1439
ag1074
ag1395
ag322
ag36
ag577
ag1334
ag189
ag658
ag1078
ag94
ag1517
ag1094
ag211
ag1070
ag1465
ag1149
ag710
ag864
ag326
ag729
ag111
ag43
ag490
ag913
ag147
ag894
ag890
ag489
ag903
ag1100
ag1380
ag382
ag1118
ag175
ag861
ag1005
ag1213
ag535
ag695
ag249
ag318
ag743
ag1425
ag47
ag223
ag132
ag896
ag1140
ag1416
ag633
ag440
ag390
ag1071
ag528
ag696
ag135
ag531
ag1436
ag68
ag1469
ag586
ag995
ag354
ag600
ag711
ag938
ag847
ag1455
ag1388
ag1142
ag1249
ag648
ag955
ag1247
ag727
ag40
ag1184
ag893
ag1336
ag1417
ag5
ag789
ag1301
ag193
ag1459
aa(lp1570
g1317
ag1015
ag771
ag768
ag1117
ag144
ag281
ag6
ag1071
ag1333
ag1345
ag100
ag451
ag146
ag342
ag397
ag908
ag895
ag272
ag725
ag290
ag928
ag813
ag491
ag242
ag141
ag1417
ag823
ag1436
ag213
ag116
ag612
ag36
ag1073
ag1373
ag1037
ag436
ag778
ag508
ag1188
ag25
ag1152
ag796
ag1505
ag595
ag1397
ag8
ag194
ag770
ag322
ag1282
ag1515
ag585
ag933
ag150
ag381
ag652
ag236
ag169
ag458
ag603
ag1357
ag910
ag919
ag616
ag27
ag571
ag419
ag949
ag1351
ag872
ag696
ag600
ag1408
ag386
ag461
ag730
ag506
ag1427
ag364
ag1517
ag1019
ag1485
ag1534
ag524
ag996
ag32
ag1266
ag891
ag278
ag651
ag20
ag570
ag1003
ag1374
ag893
ag1512
ag26
ag362
ag1513
aa.